	.section	__TEXT,__text,regular,pure_instructions
	.globl	__ZN11TrackObjectC1Ev
	.align	4, 0x90
__ZN11TrackObjectC1Ev:                  ## @_ZN11TrackObjectC1Ev
	.cfi_startproc
## BB#0:
	pushq	%rbp
Ltmp2:
	.cfi_def_cfa_offset 16
Ltmp3:
	.cfi_offset %rbp, -16
	movq	%rsp, %rbp
Ltmp4:
	.cfi_def_cfa_register %rbp
	subq	$16, %rsp
	movq	%rdi, -8(%rbp)
	movq	-8(%rbp), %rdi
	callq	__ZN11TrackObjectC2Ev
	addq	$16, %rsp
	popq	%rbp
	ret
	.cfi_endproc

	.section	__TEXT,__literal4,4byte_literals
	.align	2
LCPI1_0:
	.long	1056964608              ## float 0.5
	.section	__TEXT,__text,regular,pure_instructions
	.globl	__ZN11TrackObjectC2Ev
	.align	4, 0x90
__ZN11TrackObjectC2Ev:                  ## @_ZN11TrackObjectC2Ev
	.cfi_startproc
	.cfi_personality 155, ___gxx_personality_v0
Leh_func_begin1:
	.cfi_lsda 16, Lexception1
## BB#0:
	pushq	%rbp
Ltmp23:
	.cfi_def_cfa_offset 16
Ltmp24:
	.cfi_offset %rbp, -16
	movq	%rsp, %rbp
Ltmp25:
	.cfi_def_cfa_register %rbp
	subq	$224, %rsp
	movq	%rdi, -96(%rbp)
	movq	-96(%rbp), %rdi
	movq	%rdi, %rax
	addq	$32, %rax
	movq	%rdi, -184(%rbp)        ## 8-byte Spill
	movq	%rax, %rdi
	callq	__ZN2cv6Point_IiEC1Ev
	movq	-184(%rbp), %rax        ## 8-byte Reload
	addq	$40, %rax
	movq	%rax, %rdi
	callq	__ZN2cv6Point_IiEC1Ev
	movq	-184(%rbp), %rax        ## 8-byte Reload
	addq	$72, %rax
	movq	%rax, -88(%rbp)
	movq	-88(%rbp), %rdi
	movq	%rdi, -80(%rbp)
	movq	-80(%rbp), %rdi
	movq	%rdi, -72(%rbp)
	movq	-72(%rbp), %rcx
	movq	%rcx, -64(%rbp)
	movq	-64(%rbp), %rcx
	movq	%rcx, -56(%rbp)
	movq	-56(%rbp), %rcx
	movq	%rcx, -48(%rbp)
	movq	%rdi, -24(%rbp)
	movq	-24(%rbp), %rcx
	movq	%rcx, -16(%rbp)
	movq	-16(%rbp), %rcx
	movq	%rcx, -8(%rbp)
	movq	-8(%rbp), %rcx
	movq	%rcx, -32(%rbp)
	movl	$0, -36(%rbp)
	movq	%rax, -192(%rbp)        ## 8-byte Spill
LBB1_1:                                 ## =>This Inner Loop Header: Depth=1
	cmpl	$3, -36(%rbp)
	jae	LBB1_3
## BB#2:                                ##   in Loop: Header=BB1_1 Depth=1
	movl	-36(%rbp), %eax
	movl	%eax, %ecx
	movq	-32(%rbp), %rdx
	movq	$0, (%rdx,%rcx,8)
	movl	-36(%rbp), %eax
	addl	$1, %eax
	movl	%eax, -36(%rbp)
	jmp	LBB1_1
LBB1_3:                                 ## %_ZNSt3__112basic_stringIcNS_11char_traitsIcEENS_9allocatorIcEEEC1Ev.exit
	movq	-184(%rbp), %rax        ## 8-byte Reload
	addq	$96, %rax
Ltmp5:
	movq	%rax, %rdi
	movq	%rax, -200(%rbp)        ## 8-byte Spill
	callq	__ZN2cv3MatC1Ev
Ltmp6:
	jmp	LBB1_4
LBB1_4:
	movq	-184(%rbp), %rax        ## 8-byte Reload
	addq	$208, %rax
Ltmp8:
	movq	%rax, %rdi
	movq	%rax, -208(%rbp)        ## 8-byte Spill
	callq	__ZN2cv12VideoCaptureC1Ev
Ltmp9:
	jmp	LBB1_5
LBB1_5:
	movl	$0, -112(%rbp)
	movl	$256, -116(%rbp)        ## imm = 0x100
	movl	$0, -120(%rbp)
	movl	$256, -124(%rbp)        ## imm = 0x100
	movl	$0, -128(%rbp)
	movl	$256, -132(%rbp)        ## imm = 0x100
	movl	$1, -136(%rbp)
	movl	$100, -140(%rbp)
Ltmp11:
	leaq	-152(%rbp), %rdi
	movl	$30, %eax
	movl	%eax, %esi
	movl	%eax, %edx
	callq	__ZN2cv6Point_IiEC1Eii
Ltmp12:
	jmp	LBB1_6
LBB1_6:
	movss	LCPI1_0(%rip), %xmm0
	movl	$4, -156(%rbp)
	movss	%xmm0, -160(%rbp)
	movl	$127, -164(%rbp)
	movl	$1, -168(%rbp)
	movl	$7, -172(%rbp)
	addq	$224, %rsp
	popq	%rbp
	ret
LBB1_7:
Ltmp7:
	movl	%edx, %ecx
	movq	%rax, -104(%rbp)
	movl	%ecx, -108(%rbp)
	jmp	LBB1_13
LBB1_8:
Ltmp10:
	movl	%edx, %ecx
	movq	%rax, -104(%rbp)
	movl	%ecx, -108(%rbp)
	jmp	LBB1_11
LBB1_9:
Ltmp13:
	movl	%edx, %ecx
	movq	%rax, -104(%rbp)
	movl	%ecx, -108(%rbp)
Ltmp14:
	movq	-208(%rbp), %rdi        ## 8-byte Reload
	callq	__ZN2cv12VideoCaptureD1Ev
Ltmp15:
	jmp	LBB1_10
LBB1_10:
	jmp	LBB1_11
LBB1_11:
Ltmp16:
	movq	-200(%rbp), %rdi        ## 8-byte Reload
	callq	__ZN2cv3MatD1Ev
Ltmp17:
	jmp	LBB1_12
LBB1_12:
	jmp	LBB1_13
LBB1_13:
Ltmp18:
	movq	-192(%rbp), %rdi        ## 8-byte Reload
	callq	__ZNSt3__112basic_stringIcNS_11char_traitsIcEENS_9allocatorIcEEED1Ev
Ltmp19:
	jmp	LBB1_14
LBB1_14:
	jmp	LBB1_15
LBB1_15:
	movq	-104(%rbp), %rdi
	callq	__Unwind_Resume
LBB1_16:
Ltmp20:
	movl	%edx, %ecx
	movq	%rax, %rdi
	movl	%ecx, -212(%rbp)        ## 4-byte Spill
	callq	___clang_call_terminate
	.cfi_endproc
Leh_func_end1:
	.section	__TEXT,__gcc_except_tab
	.align	2
GCC_except_table1:
Lexception1:
	.byte	255                     ## @LPStart Encoding = omit
	.byte	155                     ## @TType Encoding = indirect pcrel sdata4
	.asciz	"\326\200\200"          ## @TType base offset
	.byte	3                       ## Call site Encoding = udata4
	.byte	78                      ## Call site table length
Lset0 = Leh_func_begin1-Leh_func_begin1 ## >> Call Site 1 <<
	.long	Lset0
Lset1 = Ltmp5-Leh_func_begin1           ##   Call between Leh_func_begin1 and Ltmp5
	.long	Lset1
	.long	0                       ##     has no landing pad
	.byte	0                       ##   On action: cleanup
Lset2 = Ltmp5-Leh_func_begin1           ## >> Call Site 2 <<
	.long	Lset2
Lset3 = Ltmp6-Ltmp5                     ##   Call between Ltmp5 and Ltmp6
	.long	Lset3
Lset4 = Ltmp7-Leh_func_begin1           ##     jumps to Ltmp7
	.long	Lset4
	.byte	0                       ##   On action: cleanup
Lset5 = Ltmp8-Leh_func_begin1           ## >> Call Site 3 <<
	.long	Lset5
Lset6 = Ltmp9-Ltmp8                     ##   Call between Ltmp8 and Ltmp9
	.long	Lset6
Lset7 = Ltmp10-Leh_func_begin1          ##     jumps to Ltmp10
	.long	Lset7
	.byte	0                       ##   On action: cleanup
Lset8 = Ltmp11-Leh_func_begin1          ## >> Call Site 4 <<
	.long	Lset8
Lset9 = Ltmp12-Ltmp11                   ##   Call between Ltmp11 and Ltmp12
	.long	Lset9
Lset10 = Ltmp13-Leh_func_begin1         ##     jumps to Ltmp13
	.long	Lset10
	.byte	0                       ##   On action: cleanup
Lset11 = Ltmp14-Leh_func_begin1         ## >> Call Site 5 <<
	.long	Lset11
Lset12 = Ltmp19-Ltmp14                  ##   Call between Ltmp14 and Ltmp19
	.long	Lset12
Lset13 = Ltmp20-Leh_func_begin1         ##     jumps to Ltmp20
	.long	Lset13
	.byte	1                       ##   On action: 1
Lset14 = Ltmp19-Leh_func_begin1         ## >> Call Site 6 <<
	.long	Lset14
Lset15 = Leh_func_end1-Ltmp19           ##   Call between Ltmp19 and Leh_func_end1
	.long	Lset15
	.long	0                       ##     has no landing pad
	.byte	0                       ##   On action: cleanup
	.byte	1                       ## >> Action Record 1 <<
                                        ##   Catch TypeInfo 1
	.byte	0                       ##   No further actions
                                        ## >> Catch TypeInfos <<
	.long	0                       ## TypeInfo 1
	.align	2

	.section	__TEXT,__textcoal_nt,coalesced,pure_instructions
	.globl	__ZN2cv6Point_IiEC1Ev
	.weak_def_can_be_hidden	__ZN2cv6Point_IiEC1Ev
	.align	4, 0x90
__ZN2cv6Point_IiEC1Ev:                  ## @_ZN2cv6Point_IiEC1Ev
	.cfi_startproc
## BB#0:
	pushq	%rbp
Ltmp28:
	.cfi_def_cfa_offset 16
Ltmp29:
	.cfi_offset %rbp, -16
	movq	%rsp, %rbp
Ltmp30:
	.cfi_def_cfa_register %rbp
	subq	$16, %rsp
	movq	%rdi, -8(%rbp)
	movq	-8(%rbp), %rdi
	callq	__ZN2cv6Point_IiEC2Ev
	addq	$16, %rsp
	popq	%rbp
	ret
	.cfi_endproc

	.globl	__ZN2cv3MatC1Ev
	.weak_def_can_be_hidden	__ZN2cv3MatC1Ev
	.align	4, 0x90
__ZN2cv3MatC1Ev:                        ## @_ZN2cv3MatC1Ev
	.cfi_startproc
## BB#0:
	pushq	%rbp
Ltmp33:
	.cfi_def_cfa_offset 16
Ltmp34:
	.cfi_offset %rbp, -16
	movq	%rsp, %rbp
Ltmp35:
	.cfi_def_cfa_register %rbp
	subq	$16, %rsp
	movq	%rdi, -8(%rbp)
	movq	-8(%rbp), %rdi
	callq	__ZN2cv3MatC2Ev
	addq	$16, %rsp
	popq	%rbp
	ret
	.cfi_endproc

	.globl	__ZN2cv6Point_IiEC1Eii
	.weak_def_can_be_hidden	__ZN2cv6Point_IiEC1Eii
	.align	4, 0x90
__ZN2cv6Point_IiEC1Eii:                 ## @_ZN2cv6Point_IiEC1Eii
	.cfi_startproc
## BB#0:
	pushq	%rbp
Ltmp38:
	.cfi_def_cfa_offset 16
Ltmp39:
	.cfi_offset %rbp, -16
	movq	%rsp, %rbp
Ltmp40:
	.cfi_def_cfa_register %rbp
	subq	$16, %rsp
	movq	%rdi, -8(%rbp)
	movl	%esi, -12(%rbp)
	movl	%edx, -16(%rbp)
	movq	-8(%rbp), %rdi
	movl	-12(%rbp), %esi
	movl	-16(%rbp), %edx
	callq	__ZN2cv6Point_IiEC2Eii
	addq	$16, %rsp
	popq	%rbp
	ret
	.cfi_endproc

	.private_extern	___clang_call_terminate
	.globl	___clang_call_terminate
	.weak_def_can_be_hidden	___clang_call_terminate
	.align	4, 0x90
___clang_call_terminate:                ## @__clang_call_terminate
## BB#0:
	pushq	%rbp
	movq	%rsp, %rbp
	subq	$16, %rsp
	callq	___cxa_begin_catch
	movq	%rax, -8(%rbp)          ## 8-byte Spill
	callq	__ZSt9terminatev

	.globl	__ZN2cv3MatD1Ev
	.weak_def_can_be_hidden	__ZN2cv3MatD1Ev
	.align	4, 0x90
__ZN2cv3MatD1Ev:                        ## @_ZN2cv3MatD1Ev
	.cfi_startproc
## BB#0:
	pushq	%rbp
Ltmp43:
	.cfi_def_cfa_offset 16
Ltmp44:
	.cfi_offset %rbp, -16
	movq	%rsp, %rbp
Ltmp45:
	.cfi_def_cfa_register %rbp
	subq	$16, %rsp
	movq	%rdi, -8(%rbp)
	movq	-8(%rbp), %rdi
	callq	__ZN2cv3MatD2Ev
	addq	$16, %rsp
	popq	%rbp
	ret
	.cfi_endproc

	.section	__TEXT,__text,regular,pure_instructions
	.globl	__ZN11TrackObject11giveDisplayEb
	.align	4, 0x90
__ZN11TrackObject11giveDisplayEb:       ## @_ZN11TrackObject11giveDisplayEb
	.cfi_startproc
## BB#0:
	pushq	%rbp
Ltmp48:
	.cfi_def_cfa_offset 16
Ltmp49:
	.cfi_offset %rbp, -16
	movq	%rsp, %rbp
Ltmp50:
	.cfi_def_cfa_register %rbp
	movb	%sil, %al
	movq	%rdi, -8(%rbp)
	andb	$1, %al
	movb	%al, -9(%rbp)
	movq	-8(%rbp), %rdi
	movb	-9(%rbp), %al
	andb	$1, %al
	movb	%al, 48(%rdi)
	popq	%rbp
	ret
	.cfi_endproc

	.section	__TEXT,__literal8,8byte_literals
	.align	3
LCPI8_0:
	.quad	4598175219545276416     ## double 0.25
	.section	__TEXT,__text,regular,pure_instructions
	.globl	__ZN11TrackObject17displayCameraFeedEv
	.align	4, 0x90
__ZN11TrackObject17displayCameraFeedEv: ## @_ZN11TrackObject17displayCameraFeedEv
	.cfi_startproc
	.cfi_personality 155, ___gxx_personality_v0
Leh_func_begin8:
	.cfi_lsda 16, Lexception8
## BB#0:
	pushq	%rbp
Ltmp61:
	.cfi_def_cfa_offset 16
Ltmp62:
	.cfi_offset %rbp, -16
	movq	%rsp, %rbp
Ltmp63:
	.cfi_def_cfa_register %rbp
	subq	$192, %rsp
	movq	%rdi, -80(%rbp)
	movq	-80(%rbp), %rdi
	movq	%rdi, %rax
	addq	$208, %rax
	movq	%rdi, %rcx
	addq	$96, %rcx
	movq	%rdi, -160(%rbp)        ## 8-byte Spill
	movq	%rax, %rdi
	movq	%rcx, %rsi
	callq	__ZN2cv12VideoCapturersERNS_3MatE
	movsd	LCPI8_0(%rip), %xmm0
	movq	-160(%rbp), %rcx        ## 8-byte Reload
	movl	104(%rcx), %edx
	imull	108(%rcx), %edx
	cvtsi2sdl	%edx, %xmm1
	mulsd	%xmm0, %xmm1
	cvttsd2si	%xmm1, %edx
	movl	%edx, 200(%rcx)
	testb	$1, 48(%rcx)
	movq	%rax, -168(%rbp)        ## 8-byte Spill
	je	LBB8_6
## BB#1:
	leaq	-104(%rbp), %rax
	movq	%rax, -64(%rbp)
	leaq	L_.str(%rip), %rax
	movq	%rax, -72(%rbp)
	movq	-64(%rbp), %rcx
	movq	%rcx, -48(%rbp)
	movq	%rax, -56(%rbp)
	movq	-48(%rbp), %rax
	movq	%rax, -40(%rbp)
	movq	%rax, -32(%rbp)
	movq	%rax, -24(%rbp)
	movq	%rax, -16(%rbp)
	movq	-56(%rbp), %rcx
	movq	%rcx, -8(%rbp)
	movq	%rcx, %rdi
	movq	%rax, -176(%rbp)        ## 8-byte Spill
	movq	%rcx, -184(%rbp)        ## 8-byte Spill
	callq	_strlen
	movq	-176(%rbp), %rdi        ## 8-byte Reload
	movq	-184(%rbp), %rsi        ## 8-byte Reload
	movq	%rax, %rdx
	callq	__ZNSt3__112basic_stringIcNS_11char_traitsIcEENS_9allocatorIcEEE6__initEPKcm
	movq	-160(%rbp), %rax        ## 8-byte Reload
	addq	$96, %rax
Ltmp51:
	leaq	-136(%rbp), %rdi
	movq	%rax, %rsi
	callq	__ZN2cv11_InputArrayC1ERKNS_3MatE
Ltmp52:
	jmp	LBB8_2
LBB8_2:
Ltmp53:
	leaq	-104(%rbp), %rdi
	leaq	-136(%rbp), %rsi
	callq	__ZN2cv6imshowERKNSt3__112basic_stringIcNS0_11char_traitsIcEENS0_9allocatorIcEEEERKNS_11_InputArrayE
Ltmp54:
	jmp	LBB8_3
LBB8_3:
	leaq	-104(%rbp), %rdi
	callq	__ZNSt3__112basic_stringIcNS_11char_traitsIcEENS_9allocatorIcEEED1Ev
	jmp	LBB8_6
LBB8_4:
Ltmp55:
	movl	%edx, %ecx
	movq	%rax, -144(%rbp)
	movl	%ecx, -148(%rbp)
Ltmp56:
	leaq	-104(%rbp), %rdi
	callq	__ZNSt3__112basic_stringIcNS_11char_traitsIcEENS_9allocatorIcEEED1Ev
Ltmp57:
	jmp	LBB8_5
LBB8_5:
	jmp	LBB8_7
LBB8_6:
	addq	$192, %rsp
	popq	%rbp
	ret
LBB8_7:
	movq	-144(%rbp), %rdi
	callq	__Unwind_Resume
LBB8_8:
Ltmp58:
	movl	%edx, %ecx
	movq	%rax, %rdi
	movl	%ecx, -188(%rbp)        ## 4-byte Spill
	callq	___clang_call_terminate
	.cfi_endproc
Leh_func_end8:
	.section	__TEXT,__gcc_except_tab
	.align	2
GCC_except_table8:
Lexception8:
	.byte	255                     ## @LPStart Encoding = omit
	.byte	155                     ## @TType Encoding = indirect pcrel sdata4
	.byte	73                      ## @TType base offset
	.byte	3                       ## Call site Encoding = udata4
	.byte	65                      ## Call site table length
Lset16 = Leh_func_begin8-Leh_func_begin8 ## >> Call Site 1 <<
	.long	Lset16
Lset17 = Ltmp51-Leh_func_begin8         ##   Call between Leh_func_begin8 and Ltmp51
	.long	Lset17
	.long	0                       ##     has no landing pad
	.byte	0                       ##   On action: cleanup
Lset18 = Ltmp51-Leh_func_begin8         ## >> Call Site 2 <<
	.long	Lset18
Lset19 = Ltmp54-Ltmp51                  ##   Call between Ltmp51 and Ltmp54
	.long	Lset19
Lset20 = Ltmp55-Leh_func_begin8         ##     jumps to Ltmp55
	.long	Lset20
	.byte	0                       ##   On action: cleanup
Lset21 = Ltmp54-Leh_func_begin8         ## >> Call Site 3 <<
	.long	Lset21
Lset22 = Ltmp56-Ltmp54                  ##   Call between Ltmp54 and Ltmp56
	.long	Lset22
	.long	0                       ##     has no landing pad
	.byte	0                       ##   On action: cleanup
Lset23 = Ltmp56-Leh_func_begin8         ## >> Call Site 4 <<
	.long	Lset23
Lset24 = Ltmp57-Ltmp56                  ##   Call between Ltmp56 and Ltmp57
	.long	Lset24
Lset25 = Ltmp58-Leh_func_begin8         ##     jumps to Ltmp58
	.long	Lset25
	.byte	1                       ##   On action: 1
Lset26 = Ltmp57-Leh_func_begin8         ## >> Call Site 5 <<
	.long	Lset26
Lset27 = Leh_func_end8-Ltmp57           ##   Call between Ltmp57 and Leh_func_end8
	.long	Lset27
	.long	0                       ##     has no landing pad
	.byte	0                       ##   On action: cleanup
	.byte	1                       ## >> Action Record 1 <<
                                        ##   Catch TypeInfo 1
	.byte	0                       ##   No further actions
                                        ## >> Catch TypeInfos <<
	.long	0                       ## TypeInfo 1
	.align	2

	.section	__TEXT,__text,regular,pure_instructions
	.globl	__ZN11TrackObject10giveValuesEiiiiii
	.align	4, 0x90
__ZN11TrackObject10giveValuesEiiiiii:   ## @_ZN11TrackObject10giveValuesEiiiiii
	.cfi_startproc
## BB#0:
	pushq	%rbp
Ltmp66:
	.cfi_def_cfa_offset 16
Ltmp67:
	.cfi_offset %rbp, -16
	movq	%rsp, %rbp
Ltmp68:
	.cfi_def_cfa_register %rbp
	movl	16(%rbp), %eax
	movq	%rdi, -8(%rbp)
	movl	%esi, -12(%rbp)
	movl	%edx, -16(%rbp)
	movl	%ecx, -20(%rbp)
	movl	%r8d, -24(%rbp)
	movl	%r9d, -28(%rbp)
	movl	%eax, -32(%rbp)
	movq	-8(%rbp), %rdi
	movl	-12(%rbp), %eax
	movl	%eax, (%rdi)
	movl	-16(%rbp), %eax
	movl	%eax, 4(%rdi)
	movl	-20(%rbp), %eax
	movl	%eax, 8(%rdi)
	movl	-24(%rbp), %eax
	movl	%eax, 12(%rdi)
	movl	-28(%rbp), %eax
	movl	%eax, 16(%rdi)
	movl	-32(%rbp), %eax
	movl	%eax, 20(%rdi)
	popq	%rbp
	ret
	.cfi_endproc

	.globl	__ZN11TrackObject13imageToBinaryEv
	.align	4, 0x90
__ZN11TrackObject13imageToBinaryEv:     ## @_ZN11TrackObject13imageToBinaryEv
	.cfi_startproc
	.cfi_personality 155, ___gxx_personality_v0
Leh_func_begin10:
	.cfi_lsda 16, Lexception10
## BB#0:
	pushq	%rbp
Ltmp165:
	.cfi_def_cfa_offset 16
Ltmp166:
	.cfi_offset %rbp, -16
	movq	%rsp, %rbp
Ltmp167:
	.cfi_def_cfa_register %rbp
	subq	$1184, %rsp             ## imm = 0x4A0
	movq	%rdi, -8(%rbp)
	movq	%rdi, %rax
	leaq	-104(%rbp), %rcx
	movq	%rdi, -1152(%rbp)       ## 8-byte Spill
	movq	%rcx, %rdi
	movq	%rax, -1160(%rbp)       ## 8-byte Spill
	callq	__ZN2cv3MatC1Ev
	movq	-1152(%rbp), %rax       ## 8-byte Reload
	addq	$96, %rax
Ltmp69:
	leaq	-136(%rbp), %rdi
	movq	%rax, %rsi
	callq	__ZN2cv11_InputArrayC1ERKNS_3MatE
Ltmp70:
	jmp	LBB10_1
LBB10_1:
Ltmp71:
	leaq	-184(%rbp), %rdi
	leaq	-104(%rbp), %rsi
	callq	__ZN2cv12_OutputArrayC1ERNS_3MatE
Ltmp72:
	jmp	LBB10_2
LBB10_2:
Ltmp73:
	leaq	-136(%rbp), %rdi
	leaq	-184(%rbp), %rsi
	movl	$41, %edx
	xorl	%ecx, %ecx
	callq	__ZN2cv8cvtColorERKNS_11_InputArrayERKNS_12_OutputArrayEii
Ltmp74:
	jmp	LBB10_3
LBB10_3:
Ltmp75:
	leaq	-216(%rbp), %rdi
	leaq	-104(%rbp), %rsi
	callq	__ZN2cv11_InputArrayC1ERKNS_3MatE
Ltmp76:
	jmp	LBB10_4
LBB10_4:
	movq	-1160(%rbp), %rax       ## 8-byte Reload
	cvtsi2sdl	(%rax), %xmm0
	cvtsi2sdl	8(%rax), %xmm1
	cvtsi2sdl	16(%rax), %xmm2
Ltmp77:
	leaq	-280(%rbp), %rdi
	xorps	%xmm3, %xmm3
	callq	__ZN2cv7Scalar_IdEC1Edddd
Ltmp78:
	jmp	LBB10_5
LBB10_5:
Ltmp79:
	leaq	-248(%rbp), %rdi
	leaq	-280(%rbp), %rsi
	callq	__ZN2cv11_InputArrayC1ERKNS_7Scalar_IdEE
Ltmp80:
	jmp	LBB10_6
LBB10_6:
	movq	-1160(%rbp), %rax       ## 8-byte Reload
	cvtsi2sdl	4(%rax), %xmm0
	cvtsi2sdl	12(%rax), %xmm1
	cvtsi2sdl	20(%rax), %xmm2
Ltmp81:
	leaq	-344(%rbp), %rdi
	xorps	%xmm3, %xmm3
	callq	__ZN2cv7Scalar_IdEC1Edddd
Ltmp82:
	jmp	LBB10_7
LBB10_7:
Ltmp83:
	leaq	-312(%rbp), %rdi
	leaq	-344(%rbp), %rsi
	callq	__ZN2cv11_InputArrayC1ERKNS_7Scalar_IdEE
Ltmp84:
	jmp	LBB10_8
LBB10_8:
	movq	-1160(%rbp), %rax       ## 8-byte Reload
	addq	$96, %rax
Ltmp85:
	leaq	-376(%rbp), %rdi
	movq	%rax, %rsi
	callq	__ZN2cv12_OutputArrayC1ERNS_3MatE
Ltmp86:
	jmp	LBB10_9
LBB10_9:
Ltmp87:
	leaq	-216(%rbp), %rdi
	leaq	-248(%rbp), %rsi
	leaq	-312(%rbp), %rdx
	leaq	-376(%rbp), %rcx
	callq	__ZN2cv7inRangeERKNS_11_InputArrayES2_S2_RKNS_12_OutputArrayE
Ltmp88:
	jmp	LBB10_10
LBB10_10:
Ltmp89:
	leaq	-480(%rbp), %rdi
	movl	$3, %eax
	movl	%eax, %esi
	movl	%eax, %edx
	callq	__ZN2cv5Size_IiEC1Eii
Ltmp90:
	jmp	LBB10_11
LBB10_11:
Ltmp91:
	leaq	-488(%rbp), %rdi
	movl	$-1, %eax
	movl	%eax, %esi
	movl	%eax, %edx
	callq	__ZN2cv6Point_IiEC1Eii
Ltmp92:
	jmp	LBB10_12
LBB10_12:
Ltmp93:
	leaq	-472(%rbp), %rdi
	movl	$2, %esi
	leaq	-480(%rbp), %rdx
	leaq	-488(%rbp), %rcx
	callq	__ZN2cv21getStructuringElementEiNS_5Size_IiEENS_6Point_IiEE
Ltmp94:
	jmp	LBB10_13
LBB10_13:
Ltmp95:
	leaq	-592(%rbp), %rdi
	movl	$8, %eax
	movl	%eax, %esi
	movl	%eax, %edx
	callq	__ZN2cv5Size_IiEC1Eii
Ltmp96:
	jmp	LBB10_14
LBB10_14:
Ltmp97:
	leaq	-600(%rbp), %rdi
	movl	$-1, %eax
	movl	%eax, %esi
	movl	%eax, %edx
	callq	__ZN2cv6Point_IiEC1Eii
Ltmp98:
	jmp	LBB10_15
LBB10_15:
Ltmp99:
	leaq	-584(%rbp), %rdi
	movl	$2, %esi
	leaq	-592(%rbp), %rdx
	leaq	-600(%rbp), %rcx
	callq	__ZN2cv21getStructuringElementEiNS_5Size_IiEENS_6Point_IiEE
Ltmp100:
	jmp	LBB10_16
LBB10_16:
	movq	-1160(%rbp), %rax       ## 8-byte Reload
	addq	$96, %rax
Ltmp101:
	leaq	-632(%rbp), %rdi
	movq	%rax, %rsi
	callq	__ZN2cv11_InputArrayC1ERKNS_3MatE
Ltmp102:
	jmp	LBB10_17
LBB10_17:
	movq	-1160(%rbp), %rax       ## 8-byte Reload
	addq	$96, %rax
Ltmp103:
	leaq	-664(%rbp), %rdi
	movq	%rax, %rsi
	callq	__ZN2cv12_OutputArrayC1ERNS_3MatE
Ltmp104:
	jmp	LBB10_18
LBB10_18:
Ltmp105:
	leaq	-696(%rbp), %rdi
	leaq	-472(%rbp), %rsi
	callq	__ZN2cv11_InputArrayC1ERKNS_3MatE
Ltmp106:
	jmp	LBB10_19
LBB10_19:
Ltmp107:
	leaq	-704(%rbp), %rdi
	movl	$-1, %eax
	movl	%eax, %esi
	movl	%eax, %edx
	callq	__ZN2cv6Point_IiEC1Eii
Ltmp108:
	jmp	LBB10_20
LBB10_20:
Ltmp109:
	leaq	-736(%rbp), %rdi
	callq	__ZN2cvL28morphologyDefaultBorderValueEv
Ltmp110:
	jmp	LBB10_21
LBB10_21:
Ltmp111:
	movq	%rsp, %rax
	leaq	-736(%rbp), %rcx
	movq	%rcx, (%rax)
	leaq	-632(%rbp), %rdi
	leaq	-664(%rbp), %rsi
	leaq	-696(%rbp), %rdx
	leaq	-704(%rbp), %rcx
	movl	$1, %r8d
	xorl	%r9d, %r9d
	callq	__ZN2cv5erodeERKNS_11_InputArrayERKNS_12_OutputArrayES2_NS_6Point_IiEEiiRKNS_7Scalar_IdEE
Ltmp112:
	jmp	LBB10_22
LBB10_22:
	movq	-1160(%rbp), %rax       ## 8-byte Reload
	addq	$96, %rax
Ltmp113:
	leaq	-768(%rbp), %rdi
	movq	%rax, %rsi
	callq	__ZN2cv11_InputArrayC1ERKNS_3MatE
Ltmp114:
	jmp	LBB10_23
LBB10_23:
	movq	-1160(%rbp), %rax       ## 8-byte Reload
	addq	$96, %rax
Ltmp115:
	leaq	-800(%rbp), %rdi
	movq	%rax, %rsi
	callq	__ZN2cv12_OutputArrayC1ERNS_3MatE
Ltmp116:
	jmp	LBB10_24
LBB10_24:
Ltmp117:
	leaq	-832(%rbp), %rdi
	leaq	-472(%rbp), %rsi
	callq	__ZN2cv11_InputArrayC1ERKNS_3MatE
Ltmp118:
	jmp	LBB10_25
LBB10_25:
Ltmp119:
	leaq	-840(%rbp), %rdi
	movl	$-1, %eax
	movl	%eax, %esi
	movl	%eax, %edx
	callq	__ZN2cv6Point_IiEC1Eii
Ltmp120:
	jmp	LBB10_26
LBB10_26:
Ltmp121:
	leaq	-872(%rbp), %rdi
	callq	__ZN2cvL28morphologyDefaultBorderValueEv
Ltmp122:
	jmp	LBB10_27
LBB10_27:
Ltmp123:
	movq	%rsp, %rax
	leaq	-872(%rbp), %rcx
	movq	%rcx, (%rax)
	leaq	-768(%rbp), %rdi
	leaq	-800(%rbp), %rsi
	leaq	-832(%rbp), %rdx
	leaq	-840(%rbp), %rcx
	movl	$1, %r8d
	xorl	%r9d, %r9d
	callq	__ZN2cv5erodeERKNS_11_InputArrayERKNS_12_OutputArrayES2_NS_6Point_IiEEiiRKNS_7Scalar_IdEE
Ltmp124:
	jmp	LBB10_28
LBB10_28:
	movq	-1160(%rbp), %rax       ## 8-byte Reload
	addq	$96, %rax
Ltmp125:
	leaq	-904(%rbp), %rdi
	movq	%rax, %rsi
	callq	__ZN2cv11_InputArrayC1ERKNS_3MatE
Ltmp126:
	jmp	LBB10_29
LBB10_29:
	movq	-1160(%rbp), %rax       ## 8-byte Reload
	addq	$96, %rax
Ltmp127:
	leaq	-936(%rbp), %rdi
	movq	%rax, %rsi
	callq	__ZN2cv12_OutputArrayC1ERNS_3MatE
Ltmp128:
	jmp	LBB10_30
LBB10_30:
Ltmp129:
	leaq	-968(%rbp), %rdi
	leaq	-584(%rbp), %rsi
	callq	__ZN2cv11_InputArrayC1ERKNS_3MatE
Ltmp130:
	jmp	LBB10_31
LBB10_31:
Ltmp131:
	leaq	-976(%rbp), %rdi
	movl	$-1, %eax
	movl	%eax, %esi
	movl	%eax, %edx
	callq	__ZN2cv6Point_IiEC1Eii
Ltmp132:
	jmp	LBB10_32
LBB10_32:
Ltmp133:
	leaq	-1008(%rbp), %rdi
	callq	__ZN2cvL28morphologyDefaultBorderValueEv
Ltmp134:
	jmp	LBB10_33
LBB10_33:
Ltmp135:
	movq	%rsp, %rax
	leaq	-1008(%rbp), %rcx
	movq	%rcx, (%rax)
	leaq	-904(%rbp), %rdi
	leaq	-936(%rbp), %rsi
	leaq	-968(%rbp), %rdx
	leaq	-976(%rbp), %rcx
	movl	$1, %r8d
	xorl	%r9d, %r9d
	callq	__ZN2cv6dilateERKNS_11_InputArrayERKNS_12_OutputArrayES2_NS_6Point_IiEEiiRKNS_7Scalar_IdEE
Ltmp136:
	jmp	LBB10_34
LBB10_34:
	movq	-1160(%rbp), %rax       ## 8-byte Reload
	addq	$96, %rax
Ltmp137:
	leaq	-1040(%rbp), %rdi
	movq	%rax, %rsi
	callq	__ZN2cv11_InputArrayC1ERKNS_3MatE
Ltmp138:
	jmp	LBB10_35
LBB10_35:
	movq	-1160(%rbp), %rax       ## 8-byte Reload
	addq	$96, %rax
Ltmp139:
	leaq	-1072(%rbp), %rdi
	movq	%rax, %rsi
	callq	__ZN2cv12_OutputArrayC1ERNS_3MatE
Ltmp140:
	jmp	LBB10_36
LBB10_36:
Ltmp141:
	leaq	-1104(%rbp), %rdi
	leaq	-584(%rbp), %rsi
	callq	__ZN2cv11_InputArrayC1ERKNS_3MatE
Ltmp142:
	jmp	LBB10_37
LBB10_37:
Ltmp143:
	leaq	-1112(%rbp), %rdi
	movl	$-1, %eax
	movl	%eax, %esi
	movl	%eax, %edx
	callq	__ZN2cv6Point_IiEC1Eii
Ltmp144:
	jmp	LBB10_38
LBB10_38:
Ltmp145:
	leaq	-1144(%rbp), %rdi
	callq	__ZN2cvL28morphologyDefaultBorderValueEv
Ltmp146:
	jmp	LBB10_39
LBB10_39:
Ltmp147:
	movq	%rsp, %rax
	leaq	-1144(%rbp), %rcx
	movq	%rcx, (%rax)
	leaq	-1040(%rbp), %rdi
	leaq	-1072(%rbp), %rsi
	leaq	-1104(%rbp), %rdx
	leaq	-1112(%rbp), %rcx
	movl	$1, %r8d
	xorl	%r9d, %r9d
	callq	__ZN2cv6dilateERKNS_11_InputArrayERKNS_12_OutputArrayES2_NS_6Point_IiEEiiRKNS_7Scalar_IdEE
Ltmp148:
	jmp	LBB10_40
LBB10_40:
Ltmp152:
	leaq	-584(%rbp), %rdi
	callq	__ZN2cv3MatD1Ev
Ltmp153:
	jmp	LBB10_41
LBB10_41:
Ltmp157:
	leaq	-472(%rbp), %rdi
	callq	__ZN2cv3MatD1Ev
Ltmp158:
	jmp	LBB10_42
LBB10_42:
	leaq	-104(%rbp), %rdi
	callq	__ZN2cv3MatD1Ev
	addq	$1184, %rsp             ## imm = 0x4A0
	popq	%rbp
	ret
LBB10_43:
Ltmp159:
	movl	%edx, %ecx
	movq	%rax, -144(%rbp)
	movl	%ecx, -148(%rbp)
	jmp	LBB10_49
LBB10_44:
Ltmp154:
	movl	%edx, %ecx
	movq	%rax, -144(%rbp)
	movl	%ecx, -148(%rbp)
	jmp	LBB10_47
LBB10_45:
Ltmp149:
	movl	%edx, %ecx
	movq	%rax, -144(%rbp)
	movl	%ecx, -148(%rbp)
Ltmp150:
	leaq	-584(%rbp), %rdi
	callq	__ZN2cv3MatD1Ev
Ltmp151:
	jmp	LBB10_46
LBB10_46:
	jmp	LBB10_47
LBB10_47:
Ltmp155:
	leaq	-472(%rbp), %rdi
	callq	__ZN2cv3MatD1Ev
Ltmp156:
	jmp	LBB10_48
LBB10_48:
	jmp	LBB10_49
LBB10_49:
Ltmp160:
	leaq	-104(%rbp), %rdi
	callq	__ZN2cv3MatD1Ev
Ltmp161:
	jmp	LBB10_50
LBB10_50:
	jmp	LBB10_51
LBB10_51:
	movq	-144(%rbp), %rdi
	callq	__Unwind_Resume
LBB10_52:
Ltmp162:
	movl	%edx, %ecx
	movq	%rax, %rdi
	movl	%ecx, -1164(%rbp)       ## 4-byte Spill
	callq	___clang_call_terminate
	.cfi_endproc
Leh_func_end10:
	.section	__TEXT,__gcc_except_tab
	.align	2
GCC_except_table10:
Lexception10:
	.byte	255                     ## @LPStart Encoding = omit
	.byte	155                     ## @TType Encoding = indirect pcrel sdata4
	.byte	125                     ## @TType base offset
	.byte	3                       ## Call site Encoding = udata4
	.byte	117                     ## Call site table length
Lset28 = Leh_func_begin10-Leh_func_begin10 ## >> Call Site 1 <<
	.long	Lset28
Lset29 = Ltmp69-Leh_func_begin10        ##   Call between Leh_func_begin10 and Ltmp69
	.long	Lset29
	.long	0                       ##     has no landing pad
	.byte	0                       ##   On action: cleanup
Lset30 = Ltmp69-Leh_func_begin10        ## >> Call Site 2 <<
	.long	Lset30
Lset31 = Ltmp94-Ltmp69                  ##   Call between Ltmp69 and Ltmp94
	.long	Lset31
Lset32 = Ltmp159-Leh_func_begin10       ##     jumps to Ltmp159
	.long	Lset32
	.byte	0                       ##   On action: cleanup
Lset33 = Ltmp95-Leh_func_begin10        ## >> Call Site 3 <<
	.long	Lset33
Lset34 = Ltmp100-Ltmp95                 ##   Call between Ltmp95 and Ltmp100
	.long	Lset34
Lset35 = Ltmp154-Leh_func_begin10       ##     jumps to Ltmp154
	.long	Lset35
	.byte	0                       ##   On action: cleanup
Lset36 = Ltmp101-Leh_func_begin10       ## >> Call Site 4 <<
	.long	Lset36
Lset37 = Ltmp148-Ltmp101                ##   Call between Ltmp101 and Ltmp148
	.long	Lset37
Lset38 = Ltmp149-Leh_func_begin10       ##     jumps to Ltmp149
	.long	Lset38
	.byte	0                       ##   On action: cleanup
Lset39 = Ltmp152-Leh_func_begin10       ## >> Call Site 5 <<
	.long	Lset39
Lset40 = Ltmp153-Ltmp152                ##   Call between Ltmp152 and Ltmp153
	.long	Lset40
Lset41 = Ltmp154-Leh_func_begin10       ##     jumps to Ltmp154
	.long	Lset41
	.byte	0                       ##   On action: cleanup
Lset42 = Ltmp157-Leh_func_begin10       ## >> Call Site 6 <<
	.long	Lset42
Lset43 = Ltmp158-Ltmp157                ##   Call between Ltmp157 and Ltmp158
	.long	Lset43
Lset44 = Ltmp159-Leh_func_begin10       ##     jumps to Ltmp159
	.long	Lset44
	.byte	0                       ##   On action: cleanup
Lset45 = Ltmp158-Leh_func_begin10       ## >> Call Site 7 <<
	.long	Lset45
Lset46 = Ltmp150-Ltmp158                ##   Call between Ltmp158 and Ltmp150
	.long	Lset46
	.long	0                       ##     has no landing pad
	.byte	0                       ##   On action: cleanup
Lset47 = Ltmp150-Leh_func_begin10       ## >> Call Site 8 <<
	.long	Lset47
Lset48 = Ltmp161-Ltmp150                ##   Call between Ltmp150 and Ltmp161
	.long	Lset48
Lset49 = Ltmp162-Leh_func_begin10       ##     jumps to Ltmp162
	.long	Lset49
	.byte	1                       ##   On action: 1
Lset50 = Ltmp161-Leh_func_begin10       ## >> Call Site 9 <<
	.long	Lset50
Lset51 = Leh_func_end10-Ltmp161         ##   Call between Ltmp161 and Leh_func_end10
	.long	Lset51
	.long	0                       ##     has no landing pad
	.byte	0                       ##   On action: cleanup
	.byte	1                       ## >> Action Record 1 <<
                                        ##   Catch TypeInfo 1
	.byte	0                       ##   No further actions
                                        ## >> Catch TypeInfos <<
	.long	0                       ## TypeInfo 1
	.align	2

	.section	__TEXT,__textcoal_nt,coalesced,pure_instructions
	.globl	__ZN2cv11_InputArrayC1ERKNS_7Scalar_IdEE
	.weak_def_can_be_hidden	__ZN2cv11_InputArrayC1ERKNS_7Scalar_IdEE
	.align	4, 0x90
__ZN2cv11_InputArrayC1ERKNS_7Scalar_IdEE: ## @_ZN2cv11_InputArrayC1ERKNS_7Scalar_IdEE
	.cfi_startproc
## BB#0:
	pushq	%rbp
Ltmp170:
	.cfi_def_cfa_offset 16
Ltmp171:
	.cfi_offset %rbp, -16
	movq	%rsp, %rbp
Ltmp172:
	.cfi_def_cfa_register %rbp
	subq	$16, %rsp
	movq	%rdi, -8(%rbp)
	movq	%rsi, -16(%rbp)
	movq	-8(%rbp), %rdi
	movq	-16(%rbp), %rsi
	callq	__ZN2cv11_InputArrayC2ERKNS_7Scalar_IdEE
	addq	$16, %rsp
	popq	%rbp
	ret
	.cfi_endproc

	.globl	__ZN2cv7Scalar_IdEC1Edddd
	.weak_def_can_be_hidden	__ZN2cv7Scalar_IdEC1Edddd
	.align	4, 0x90
__ZN2cv7Scalar_IdEC1Edddd:              ## @_ZN2cv7Scalar_IdEC1Edddd
	.cfi_startproc
## BB#0:
	pushq	%rbp
Ltmp175:
	.cfi_def_cfa_offset 16
Ltmp176:
	.cfi_offset %rbp, -16
	movq	%rsp, %rbp
Ltmp177:
	.cfi_def_cfa_register %rbp
	subq	$48, %rsp
	movq	%rdi, -8(%rbp)
	movsd	%xmm0, -16(%rbp)
	movsd	%xmm1, -24(%rbp)
	movsd	%xmm2, -32(%rbp)
	movsd	%xmm3, -40(%rbp)
	movq	-8(%rbp), %rdi
	movsd	-16(%rbp), %xmm0
	movsd	-24(%rbp), %xmm1
	movsd	-32(%rbp), %xmm2
	movsd	-40(%rbp), %xmm3
	callq	__ZN2cv7Scalar_IdEC2Edddd
	addq	$48, %rsp
	popq	%rbp
	ret
	.cfi_endproc

	.globl	__ZN2cv5Size_IiEC1Eii
	.weak_def_can_be_hidden	__ZN2cv5Size_IiEC1Eii
	.align	4, 0x90
__ZN2cv5Size_IiEC1Eii:                  ## @_ZN2cv5Size_IiEC1Eii
	.cfi_startproc
## BB#0:
	pushq	%rbp
Ltmp180:
	.cfi_def_cfa_offset 16
Ltmp181:
	.cfi_offset %rbp, -16
	movq	%rsp, %rbp
Ltmp182:
	.cfi_def_cfa_register %rbp
	subq	$16, %rsp
	movq	%rdi, -8(%rbp)
	movl	%esi, -12(%rbp)
	movl	%edx, -16(%rbp)
	movq	-8(%rbp), %rdi
	movl	-12(%rbp), %esi
	movl	-16(%rbp), %edx
	callq	__ZN2cv5Size_IiEC2Eii
	addq	$16, %rsp
	popq	%rbp
	ret
	.cfi_endproc

	.section	__TEXT,__literal8,8byte_literals
	.align	3
LCPI14_0:
	.quad	9218868437227405311     ## double 1.7976931348623157E+308
	.section	__TEXT,__text,regular,pure_instructions
	.align	4, 0x90
__ZN2cvL28morphologyDefaultBorderValueEv: ## @_ZN2cvL28morphologyDefaultBorderValueEv
	.cfi_startproc
## BB#0:
	pushq	%rbp
Ltmp185:
	.cfi_def_cfa_offset 16
Ltmp186:
	.cfi_offset %rbp, -16
	movq	%rsp, %rbp
Ltmp187:
	.cfi_def_cfa_register %rbp
	subq	$16, %rsp
	movq	%rdi, %rax
	movsd	LCPI14_0(%rip), %xmm0
	movq	%rax, -8(%rbp)          ## 8-byte Spill
	callq	__ZN2cv7Scalar_IdE3allEd
	movq	-8(%rbp), %rax          ## 8-byte Reload
	addq	$16, %rsp
	popq	%rbp
	ret
	.cfi_endproc

	.globl	__ZN11TrackObject10binaryToXYEv
	.align	4, 0x90
__ZN11TrackObject10binaryToXYEv:        ## @_ZN11TrackObject10binaryToXYEv
	.cfi_startproc
	.cfi_personality 155, ___gxx_personality_v0
Leh_func_begin15:
	.cfi_lsda 16, Lexception15
## BB#0:
	pushq	%rbp
Ltmp249:
	.cfi_def_cfa_offset 16
Ltmp250:
	.cfi_offset %rbp, -16
	movq	%rsp, %rbp
Ltmp251:
	.cfi_def_cfa_register %rbp
	pushq	%rbx
	subq	$1512, %rsp             ## imm = 0x5E8
Ltmp252:
	.cfi_offset %rbx, -24
	movq	%rdi, -680(%rbp)
	movq	%rdi, %rax
	leaq	-776(%rbp), %rcx
	movq	%rdi, -1400(%rbp)       ## 8-byte Spill
	movq	%rcx, %rdi
	movq	%rcx, -1408(%rbp)       ## 8-byte Spill
	movq	%rax, -1416(%rbp)       ## 8-byte Spill
	callq	__ZN2cv3MatC1Ev
	movq	-1400(%rbp), %rax       ## 8-byte Reload
	addq	$96, %rax
Ltmp188:
	leaq	-808(%rbp), %rdi
	movq	-1408(%rbp), %rsi       ## 8-byte Reload
	movq	%rax, -1424(%rbp)       ## 8-byte Spill
	callq	__ZN2cv12_OutputArrayC1ERNS_3MatE
Ltmp189:
	jmp	LBB15_1
LBB15_1:
Ltmp190:
	leaq	-808(%rbp), %rsi
	movq	-1424(%rbp), %rdi       ## 8-byte Reload
	callq	__ZNK2cv3Mat6copyToERKNS_12_OutputArrayE
Ltmp191:
	jmp	LBB15_2
LBB15_2:
	leaq	-576(%rbp), %rax
	leaq	-600(%rbp), %rcx
	leaq	-656(%rbp), %rdx
	leaq	-536(%rbp), %rsi
	leaq	-648(%rbp), %rdi
	leaq	-488(%rbp), %r8
	leaq	-640(%rbp), %r9
	leaq	-440(%rbp), %r10
	leaq	-848(%rbp), %r11
	movq	%r11, -672(%rbp)
	movq	-672(%rbp), %r11
	movq	%r11, -664(%rbp)
	movq	-664(%rbp), %r11
	movq	%r11, -632(%rbp)
	movq	-632(%rbp), %r11
	movq	%r11, %rbx
	movq	%rbx, -624(%rbp)
	movq	%r10, -424(%rbp)
	movq	$-1, -432(%rbp)
	movq	-424(%rbp), %r10
	movq	-432(%rbp), %rbx
	movq	%r10, -408(%rbp)
	movq	%rbx, -416(%rbp)
	movq	-408(%rbp), %r10
	movq	$0, (%r10)
	movq	-440(%rbp), %r10
	movq	%r10, -640(%rbp)
	movq	%r9, -448(%rbp)
	movq	$0, (%r11)
	movq	%r8, -472(%rbp)
	movq	$-1, -480(%rbp)
	movq	-472(%rbp), %r8
	movq	-480(%rbp), %r9
	movq	%r8, -456(%rbp)
	movq	%r9, -464(%rbp)
	movq	-456(%rbp), %r8
	movq	$0, (%r8)
	movq	-488(%rbp), %r8
	movq	%r8, -648(%rbp)
	movq	%rdi, -496(%rbp)
	movq	$0, 8(%r11)
	addq	$16, %r11
	movq	%rsi, -520(%rbp)
	movq	$-1, -528(%rbp)
	movq	-520(%rbp), %rsi
	movq	-528(%rbp), %rdi
	movq	%rsi, -504(%rbp)
	movq	%rdi, -512(%rbp)
	movq	-504(%rbp), %rsi
	movq	$0, (%rsi)
	movq	-536(%rbp), %rsi
	movq	%rsi, -656(%rbp)
	movq	%rdx, -544(%rbp)
	movq	%r11, -608(%rbp)
	movq	$0, -616(%rbp)
	movq	-608(%rbp), %rdx
	movq	-616(%rbp), %rsi
	movq	%rdx, -592(%rbp)
	movq	%rsi, -600(%rbp)
	movq	-592(%rbp), %rdx
	movq	%rcx, -584(%rbp)
	movq	-584(%rbp), %rcx
	movq	(%rcx), %rcx
	movq	%rdx, -568(%rbp)
	movq	%rcx, -576(%rbp)
	movq	-568(%rbp), %rcx
	movq	%rcx, %rdx
	movq	%rdx, -560(%rbp)
	movq	%rax, -552(%rbp)
	movq	-552(%rbp), %rax
	movq	(%rax), %rax
	movq	%rax, (%rcx)
## BB#3:
	leaq	-304(%rbp), %rax
	leaq	-328(%rbp), %rcx
	leaq	-384(%rbp), %rdx
	leaq	-264(%rbp), %rsi
	leaq	-376(%rbp), %rdi
	leaq	-216(%rbp), %r8
	leaq	-368(%rbp), %r9
	leaq	-168(%rbp), %r10
	leaq	-872(%rbp), %r11
	movq	%r11, -400(%rbp)
	movq	-400(%rbp), %r11
	movq	%r11, -392(%rbp)
	movq	-392(%rbp), %r11
	movq	%r11, -360(%rbp)
	movq	-360(%rbp), %r11
	movq	%r11, %rbx
	movq	%rbx, -352(%rbp)
	movq	%r10, -152(%rbp)
	movq	$-1, -160(%rbp)
	movq	-152(%rbp), %r10
	movq	-160(%rbp), %rbx
	movq	%r10, -136(%rbp)
	movq	%rbx, -144(%rbp)
	movq	-136(%rbp), %r10
	movq	$0, (%r10)
	movq	-168(%rbp), %r10
	movq	%r10, -368(%rbp)
	movq	%r9, -176(%rbp)
	movq	$0, (%r11)
	movq	%r8, -200(%rbp)
	movq	$-1, -208(%rbp)
	movq	-200(%rbp), %r8
	movq	-208(%rbp), %r9
	movq	%r8, -184(%rbp)
	movq	%r9, -192(%rbp)
	movq	-184(%rbp), %r8
	movq	$0, (%r8)
	movq	-216(%rbp), %r8
	movq	%r8, -376(%rbp)
	movq	%rdi, -224(%rbp)
	movq	$0, 8(%r11)
	addq	$16, %r11
	movq	%rsi, -248(%rbp)
	movq	$-1, -256(%rbp)
	movq	-248(%rbp), %rsi
	movq	-256(%rbp), %rdi
	movq	%rsi, -232(%rbp)
	movq	%rdi, -240(%rbp)
	movq	-232(%rbp), %rsi
	movq	$0, (%rsi)
	movq	-264(%rbp), %rsi
	movq	%rsi, -384(%rbp)
	movq	%rdx, -272(%rbp)
	movq	%r11, -336(%rbp)
	movq	$0, -344(%rbp)
	movq	-336(%rbp), %rdx
	movq	-344(%rbp), %rsi
	movq	%rdx, -320(%rbp)
	movq	%rsi, -328(%rbp)
	movq	-320(%rbp), %rdx
	movq	%rcx, -312(%rbp)
	movq	-312(%rbp), %rcx
	movq	(%rcx), %rcx
	movq	%rdx, -296(%rbp)
	movq	%rcx, -304(%rbp)
	movq	-296(%rbp), %rcx
	movq	%rcx, %rdx
	movq	%rdx, -288(%rbp)
	movq	%rax, -280(%rbp)
	movq	-280(%rbp), %rax
	movq	(%rax), %rax
	movq	%rax, (%rcx)
## BB#4:
Ltmp192:
	leaq	-904(%rbp), %rdi
	leaq	-776(%rbp), %rsi
	callq	__ZN2cv12_OutputArrayC1ERNS_3MatE
Ltmp193:
	jmp	LBB15_5
LBB15_5:
Ltmp194:
	leaq	-936(%rbp), %rdi
	leaq	-848(%rbp), %rsi
	callq	__ZN2cv12_OutputArrayC1INS_6Point_IiEEEERNSt3__16vectorINS5_IT_NS4_9allocatorIS6_EEEENS7_IS9_EEEE
Ltmp195:
	jmp	LBB15_6
LBB15_6:
Ltmp196:
	leaq	-968(%rbp), %rdi
	leaq	-872(%rbp), %rsi
	callq	__ZN2cv12_OutputArrayC1INS_3VecIiLi4EEEEERNSt3__16vectorIT_NS4_9allocatorIS6_EEEE
Ltmp197:
	jmp	LBB15_7
LBB15_7:
Ltmp198:
	leaq	-976(%rbp), %rdi
	callq	__ZN2cv6Point_IiEC1Ev
Ltmp199:
	jmp	LBB15_8
LBB15_8:
Ltmp200:
	leaq	-904(%rbp), %rdi
	leaq	-936(%rbp), %rsi
	leaq	-968(%rbp), %rdx
	movl	$2, %eax
	leaq	-976(%rbp), %r9
	movl	%eax, %ecx
	movl	%eax, %r8d
	callq	__ZN2cv12findContoursERKNS_12_OutputArrayES2_S2_iiNS_6Point_IiEE
Ltmp201:
	jmp	LBB15_9
LBB15_9:
	leaq	-872(%rbp), %rax
	xorps	%xmm0, %xmm0
	movsd	%xmm0, -984(%rbp)
	movb	$0, -985(%rbp)
	movq	%rax, -128(%rbp)
	movq	-128(%rbp), %rax
	movq	8(%rax), %rcx
	movq	(%rax), %rax
	subq	%rax, %rcx
	sarq	$4, %rcx
	cmpq	$0, %rcx
	jbe	LBB15_45
## BB#10:
	leaq	-872(%rbp), %rax
	movq	%rax, -120(%rbp)
	movq	-872(%rbp), %rax
	movq	-864(%rbp), %rcx
	subq	%rax, %rcx
	shrq	$4, %rcx
	movl	%ecx, %edx
	movl	%edx, -992(%rbp)
Ltmp202:
	movq	__ZNSt3__14coutE@GOTPCREL(%rip), %rdi
	movl	%edx, %esi
	callq	__ZNSt3__113basic_ostreamIcNS_11char_traitsIcEEElsEi
Ltmp203:
	movq	%rax, -1432(%rbp)       ## 8-byte Spill
	jmp	LBB15_11
LBB15_11:
	movl	-992(%rbp), %eax
	movq	-1416(%rbp), %rcx       ## 8-byte Reload
	cmpl	24(%rcx), %eax
	jne	LBB15_34
## BB#12:
	movl	$0, -996(%rbp)
LBB15_13:                               ## =>This Inner Loop Header: Depth=1
	cmpl	$0, -996(%rbp)
	jl	LBB15_33
## BB#14:                               ##   in Loop: Header=BB15_13 Depth=1
	leaq	-848(%rbp), %rax
	movslq	-996(%rbp), %rcx
	movq	%rax, -104(%rbp)
	movq	%rcx, -112(%rbp)
	movq	-104(%rbp), %rax
	movq	-112(%rbp), %rcx
	movq	(%rax), %rax
	imulq	$24, %rcx, %rcx
	addq	%rcx, %rax
	movq	%rax, -1440(%rbp)       ## 8-byte Spill
## BB#15:                               ##   in Loop: Header=BB15_13 Depth=1
Ltmp225:
	leaq	-1320(%rbp), %rdi
	xorl	%edx, %edx
	movq	-1440(%rbp), %rsi       ## 8-byte Reload
	callq	__ZN2cv3MatC1INS_6Point_IiEEEERKNSt3__16vectorIT_NS4_9allocatorIS6_EEEEb
Ltmp226:
	jmp	LBB15_16
LBB15_16:                               ##   in Loop: Header=BB15_13 Depth=1
Ltmp227:
	leaq	-1224(%rbp), %rdi
	leaq	-1320(%rbp), %rsi
	callq	__ZN2cv11_InputArrayC1ERKNS_3MatE
Ltmp228:
	jmp	LBB15_17
LBB15_17:                               ##   in Loop: Header=BB15_13 Depth=1
Ltmp229:
	leaq	-1192(%rbp), %rdi
	leaq	-1224(%rbp), %rsi
	xorl	%edx, %edx
	callq	__ZN2cv7momentsERKNS_11_InputArrayEb
Ltmp230:
	jmp	LBB15_18
LBB15_18:                               ##   in Loop: Header=BB15_13 Depth=1
Ltmp234:
	leaq	-1320(%rbp), %rdi
	callq	__ZN2cv3MatD1Ev
Ltmp235:
	jmp	LBB15_19
LBB15_19:                               ##   in Loop: Header=BB15_13 Depth=1
	movsd	-1192(%rbp), %xmm0
	movsd	%xmm0, -1328(%rbp)
	movsd	-1328(%rbp), %xmm0
	movq	-1416(%rbp), %rax       ## 8-byte Reload
	cvtsi2sdl	28(%rax), %xmm1
	ucomisd	%xmm1, %xmm0
	jbe	LBB15_28
## BB#20:                               ##   in Loop: Header=BB15_13 Depth=1
	movsd	-1328(%rbp), %xmm0
	movq	-1416(%rbp), %rax       ## 8-byte Reload
	cvtsi2sdl	200(%rax), %xmm1
	ucomisd	%xmm0, %xmm1
	jbe	LBB15_28
## BB#21:                               ##   in Loop: Header=BB15_13 Depth=1
	movsd	-1328(%rbp), %xmm0
	ucomisd	-984(%rbp), %xmm0
	jbe	LBB15_28
## BB#22:                               ##   in Loop: Header=BB15_13 Depth=1
	movsd	-1184(%rbp), %xmm0
	divsd	-1328(%rbp), %xmm0
	cvttsd2si	%xmm0, %eax
	movq	-1416(%rbp), %rcx       ## 8-byte Reload
	movl	%eax, 192(%rcx)
	movsd	-1176(%rbp), %xmm0
	divsd	-1328(%rbp), %xmm0
	cvttsd2si	%xmm0, %eax
	movl	%eax, 196(%rcx)
	movb	$1, -985(%rbp)
	movsd	-1328(%rbp), %xmm0
	movsd	%xmm0, -984(%rbp)
	jmp	LBB15_29
LBB15_23:
Ltmp224:
	movl	%edx, %ecx
	movq	%rax, -816(%rbp)
	movl	%ecx, -820(%rbp)
	jmp	LBB15_52
LBB15_24:
Ltmp221:
	movl	%edx, %ecx
	movq	%rax, -816(%rbp)
	movl	%ecx, -820(%rbp)
	jmp	LBB15_50
LBB15_25:
Ltmp238:
	movl	%edx, %ecx
	movq	%rax, -816(%rbp)
	movl	%ecx, -820(%rbp)
	jmp	LBB15_48
LBB15_26:
Ltmp231:
	movl	%edx, %ecx
	movq	%rax, -816(%rbp)
	movl	%ecx, -820(%rbp)
Ltmp232:
	leaq	-1320(%rbp), %rdi
	callq	__ZN2cv3MatD1Ev
Ltmp233:
	jmp	LBB15_27
LBB15_27:
	jmp	LBB15_48
LBB15_28:                               ##   in Loop: Header=BB15_13 Depth=1
	movb	$0, -985(%rbp)
LBB15_29:                               ##   in Loop: Header=BB15_13 Depth=1
	jmp	LBB15_30
LBB15_30:                               ##   in Loop: Header=BB15_13 Depth=1
	leaq	-872(%rbp), %rax
	movslq	-996(%rbp), %rcx
	movq	%rax, -88(%rbp)
	movq	%rcx, -96(%rbp)
	movq	-88(%rbp), %rax
	movq	-96(%rbp), %rcx
	movq	(%rax), %rax
	shlq	$4, %rcx
	addq	%rcx, %rax
	movq	%rax, -1448(%rbp)       ## 8-byte Spill
## BB#31:                               ##   in Loop: Header=BB15_13 Depth=1
Ltmp236:
	xorl	%esi, %esi
	movq	-1448(%rbp), %rdi       ## 8-byte Reload
	callq	__ZN2cv3VecIiLi4EEixEi
Ltmp237:
	movq	%rax, -1456(%rbp)       ## 8-byte Spill
	jmp	LBB15_32
LBB15_32:                               ##   in Loop: Header=BB15_13 Depth=1
	movq	-1456(%rbp), %rax       ## 8-byte Reload
	movl	(%rax), %ecx
	movl	%ecx, -996(%rbp)
	jmp	LBB15_13
LBB15_33:
	jmp	LBB15_44
LBB15_34:
	movq	-1416(%rbp), %rax       ## 8-byte Reload
	addq	$96, %rax
	leaq	-1352(%rbp), %rcx
	movq	%rcx, -72(%rbp)
	leaq	L_.str1(%rip), %rcx
	movq	%rcx, -80(%rbp)
	movq	-72(%rbp), %rdx
	movq	%rdx, -56(%rbp)
	movq	%rcx, -64(%rbp)
	movq	-56(%rbp), %rcx
	movq	%rcx, -48(%rbp)
	movq	%rcx, -40(%rbp)
	movq	%rcx, -32(%rbp)
	movq	%rcx, -24(%rbp)
	movq	-64(%rbp), %rdx
	movq	%rdx, -16(%rbp)
Ltmp204:
	movq	%rdx, %rdi
	movq	%rax, -1464(%rbp)       ## 8-byte Spill
	movq	%rcx, -1472(%rbp)       ## 8-byte Spill
	movq	%rdx, -1480(%rbp)       ## 8-byte Spill
	callq	_strlen
Ltmp205:
	movq	%rax, -1488(%rbp)       ## 8-byte Spill
	jmp	LBB15_35
LBB15_35:                               ## %.noexc
Ltmp206:
	movq	-1472(%rbp), %rdi       ## 8-byte Reload
	movq	-1480(%rbp), %rsi       ## 8-byte Reload
	movq	-1488(%rbp), %rdx       ## 8-byte Reload
	callq	__ZNSt3__112basic_stringIcNS_11char_traitsIcEENS_9allocatorIcEEE6__initEPKcm
Ltmp207:
	jmp	LBB15_36
LBB15_36:                               ## %_ZNSt3__112basic_stringIcNS_11char_traitsIcEENS_9allocatorIcEEEC1EPKc.exit
	jmp	LBB15_37
LBB15_37:
	movq	-1416(%rbp), %rax       ## 8-byte Reload
	addq	$32, %rax
Ltmp208:
	leaq	-1360(%rbp), %rdi
	movq	%rax, %rsi
	callq	__ZN2cv6Point_IiEC1ERKS1_
Ltmp209:
	jmp	LBB15_38
LBB15_38:
	movq	-1416(%rbp), %rax       ## 8-byte Reload
	movl	52(%rax), %ecx
	movss	56(%rax), %xmm0
	cvtss2sd	%xmm0, %xmm0
	cvtsi2sdl	60(%rax), %xmm1
Ltmp210:
	leaq	-1392(%rbp), %rdi
	movsd	%xmm0, -1496(%rbp)      ## 8-byte Spill
	movaps	%xmm1, %xmm0
	movl	%ecx, -1500(%rbp)       ## 4-byte Spill
	callq	__ZN2cv7Scalar_IdEC1Ed
Ltmp211:
	jmp	LBB15_39
LBB15_39:
	movq	-1416(%rbp), %rax       ## 8-byte Reload
	movl	64(%rax), %r9d
	movl	68(%rax), %ecx
Ltmp212:
	movq	%rsp, %rdx
	movl	%ecx, (%rdx)
	movl	$0, 8(%rdx)
	leaq	-1352(%rbp), %rsi
	leaq	-1360(%rbp), %rdx
	leaq	-1392(%rbp), %r8
	movq	-1464(%rbp), %rdi       ## 8-byte Reload
	movl	-1500(%rbp), %ecx       ## 4-byte Reload
	movsd	-1496(%rbp), %xmm0      ## 8-byte Reload
	callq	__ZN2cv7putTextERNS_3MatERKNSt3__112basic_stringIcNS2_11char_traitsIcEENS2_9allocatorIcEEEENS_6Point_IiEEidNS_7Scalar_IdEEiib
Ltmp213:
	jmp	LBB15_40
LBB15_40:
Ltmp217:
	leaq	-1352(%rbp), %rdi
	callq	__ZNSt3__112basic_stringIcNS_11char_traitsIcEENS_9allocatorIcEEED1Ev
Ltmp218:
	jmp	LBB15_41
LBB15_41:
	jmp	LBB15_44
LBB15_42:
Ltmp214:
	movl	%edx, %ecx
	movq	%rax, -816(%rbp)
	movl	%ecx, -820(%rbp)
Ltmp215:
	leaq	-1352(%rbp), %rdi
	callq	__ZNSt3__112basic_stringIcNS_11char_traitsIcEENS_9allocatorIcEEED1Ev
Ltmp216:
	jmp	LBB15_43
LBB15_43:
	jmp	LBB15_48
LBB15_44:
	jmp	LBB15_45
LBB15_45:
Ltmp219:
	leaq	-872(%rbp), %rdi
	callq	__ZNSt3__16vectorIN2cv3VecIiLi4EEENS_9allocatorIS3_EEED1Ev
Ltmp220:
	jmp	LBB15_46
LBB15_46:
Ltmp222:
	leaq	-848(%rbp), %rdi
	callq	__ZNSt3__16vectorINS0_IN2cv6Point_IiEENS_9allocatorIS3_EEEENS4_IS6_EEED1Ev
Ltmp223:
	jmp	LBB15_47
LBB15_47:
	leaq	-776(%rbp), %rdi
	callq	__ZN2cv3MatD1Ev
	addq	$1512, %rsp             ## imm = 0x5E8
	popq	%rbx
	popq	%rbp
	ret
LBB15_48:
Ltmp239:
	leaq	-872(%rbp), %rdi
	callq	__ZNSt3__16vectorIN2cv3VecIiLi4EEENS_9allocatorIS3_EEED1Ev
Ltmp240:
	jmp	LBB15_49
LBB15_49:
	jmp	LBB15_50
LBB15_50:
Ltmp241:
	leaq	-848(%rbp), %rdi
	callq	__ZNSt3__16vectorINS0_IN2cv6Point_IiEENS_9allocatorIS3_EEEENS4_IS6_EEED1Ev
Ltmp242:
	jmp	LBB15_51
LBB15_51:
	jmp	LBB15_52
LBB15_52:
Ltmp243:
	leaq	-776(%rbp), %rdi
	callq	__ZN2cv3MatD1Ev
Ltmp244:
	jmp	LBB15_53
LBB15_53:
	jmp	LBB15_54
LBB15_54:
	movq	-816(%rbp), %rdi
	callq	__Unwind_Resume
LBB15_55:
Ltmp245:
	movl	%edx, %ecx
	movq	%rax, %rdi
	movl	%ecx, -1504(%rbp)       ## 4-byte Spill
	callq	___clang_call_terminate
	.cfi_endproc
Leh_func_end15:
	.section	__TEXT,__gcc_except_tab
	.align	2
GCC_except_table15:
Lexception15:
	.byte	255                     ## @LPStart Encoding = omit
	.byte	155                     ## @TType Encoding = indirect pcrel sdata4
	.ascii	"\314\001"              ## @TType base offset
	.byte	3                       ## Call site Encoding = udata4
	.ascii	"\303\001"              ## Call site table length
Lset52 = Leh_func_begin15-Leh_func_begin15 ## >> Call Site 1 <<
	.long	Lset52
Lset53 = Ltmp188-Leh_func_begin15       ##   Call between Leh_func_begin15 and Ltmp188
	.long	Lset53
	.long	0                       ##     has no landing pad
	.byte	0                       ##   On action: cleanup
Lset54 = Ltmp188-Leh_func_begin15       ## >> Call Site 2 <<
	.long	Lset54
Lset55 = Ltmp191-Ltmp188                ##   Call between Ltmp188 and Ltmp191
	.long	Lset55
Lset56 = Ltmp224-Leh_func_begin15       ##     jumps to Ltmp224
	.long	Lset56
	.byte	0                       ##   On action: cleanup
Lset57 = Ltmp192-Leh_func_begin15       ## >> Call Site 3 <<
	.long	Lset57
Lset58 = Ltmp226-Ltmp192                ##   Call between Ltmp192 and Ltmp226
	.long	Lset58
Lset59 = Ltmp238-Leh_func_begin15       ##     jumps to Ltmp238
	.long	Lset59
	.byte	0                       ##   On action: cleanup
Lset60 = Ltmp227-Leh_func_begin15       ## >> Call Site 4 <<
	.long	Lset60
Lset61 = Ltmp230-Ltmp227                ##   Call between Ltmp227 and Ltmp230
	.long	Lset61
Lset62 = Ltmp231-Leh_func_begin15       ##     jumps to Ltmp231
	.long	Lset62
	.byte	0                       ##   On action: cleanup
Lset63 = Ltmp234-Leh_func_begin15       ## >> Call Site 5 <<
	.long	Lset63
Lset64 = Ltmp235-Ltmp234                ##   Call between Ltmp234 and Ltmp235
	.long	Lset64
Lset65 = Ltmp238-Leh_func_begin15       ##     jumps to Ltmp238
	.long	Lset65
	.byte	0                       ##   On action: cleanup
Lset66 = Ltmp232-Leh_func_begin15       ## >> Call Site 6 <<
	.long	Lset66
Lset67 = Ltmp233-Ltmp232                ##   Call between Ltmp232 and Ltmp233
	.long	Lset67
Lset68 = Ltmp245-Leh_func_begin15       ##     jumps to Ltmp245
	.long	Lset68
	.byte	1                       ##   On action: 1
Lset69 = Ltmp236-Leh_func_begin15       ## >> Call Site 7 <<
	.long	Lset69
Lset70 = Ltmp207-Ltmp236                ##   Call between Ltmp236 and Ltmp207
	.long	Lset70
Lset71 = Ltmp238-Leh_func_begin15       ##     jumps to Ltmp238
	.long	Lset71
	.byte	0                       ##   On action: cleanup
Lset72 = Ltmp208-Leh_func_begin15       ## >> Call Site 8 <<
	.long	Lset72
Lset73 = Ltmp213-Ltmp208                ##   Call between Ltmp208 and Ltmp213
	.long	Lset73
Lset74 = Ltmp214-Leh_func_begin15       ##     jumps to Ltmp214
	.long	Lset74
	.byte	0                       ##   On action: cleanup
Lset75 = Ltmp217-Leh_func_begin15       ## >> Call Site 9 <<
	.long	Lset75
Lset76 = Ltmp218-Ltmp217                ##   Call between Ltmp217 and Ltmp218
	.long	Lset76
Lset77 = Ltmp238-Leh_func_begin15       ##     jumps to Ltmp238
	.long	Lset77
	.byte	0                       ##   On action: cleanup
Lset78 = Ltmp215-Leh_func_begin15       ## >> Call Site 10 <<
	.long	Lset78
Lset79 = Ltmp216-Ltmp215                ##   Call between Ltmp215 and Ltmp216
	.long	Lset79
Lset80 = Ltmp245-Leh_func_begin15       ##     jumps to Ltmp245
	.long	Lset80
	.byte	1                       ##   On action: 1
Lset81 = Ltmp219-Leh_func_begin15       ## >> Call Site 11 <<
	.long	Lset81
Lset82 = Ltmp220-Ltmp219                ##   Call between Ltmp219 and Ltmp220
	.long	Lset82
Lset83 = Ltmp221-Leh_func_begin15       ##     jumps to Ltmp221
	.long	Lset83
	.byte	0                       ##   On action: cleanup
Lset84 = Ltmp222-Leh_func_begin15       ## >> Call Site 12 <<
	.long	Lset84
Lset85 = Ltmp223-Ltmp222                ##   Call between Ltmp222 and Ltmp223
	.long	Lset85
Lset86 = Ltmp224-Leh_func_begin15       ##     jumps to Ltmp224
	.long	Lset86
	.byte	0                       ##   On action: cleanup
Lset87 = Ltmp223-Leh_func_begin15       ## >> Call Site 13 <<
	.long	Lset87
Lset88 = Ltmp239-Ltmp223                ##   Call between Ltmp223 and Ltmp239
	.long	Lset88
	.long	0                       ##     has no landing pad
	.byte	0                       ##   On action: cleanup
Lset89 = Ltmp239-Leh_func_begin15       ## >> Call Site 14 <<
	.long	Lset89
Lset90 = Ltmp244-Ltmp239                ##   Call between Ltmp239 and Ltmp244
	.long	Lset90
Lset91 = Ltmp245-Leh_func_begin15       ##     jumps to Ltmp245
	.long	Lset91
	.byte	1                       ##   On action: 1
Lset92 = Ltmp244-Leh_func_begin15       ## >> Call Site 15 <<
	.long	Lset92
Lset93 = Leh_func_end15-Ltmp244         ##   Call between Ltmp244 and Leh_func_end15
	.long	Lset93
	.long	0                       ##     has no landing pad
	.byte	0                       ##   On action: cleanup
	.byte	1                       ## >> Action Record 1 <<
                                        ##   Catch TypeInfo 1
	.byte	0                       ##   No further actions
                                        ## >> Catch TypeInfos <<
	.long	0                       ## TypeInfo 1
	.align	2

	.section	__TEXT,__textcoal_nt,coalesced,pure_instructions
	.globl	__ZN2cv12_OutputArrayC1INS_6Point_IiEEEERNSt3__16vectorINS5_IT_NS4_9allocatorIS6_EEEENS7_IS9_EEEE
	.weak_def_can_be_hidden	__ZN2cv12_OutputArrayC1INS_6Point_IiEEEERNSt3__16vectorINS5_IT_NS4_9allocatorIS6_EEEENS7_IS9_EEEE
	.align	4, 0x90
__ZN2cv12_OutputArrayC1INS_6Point_IiEEEERNSt3__16vectorINS5_IT_NS4_9allocatorIS6_EEEENS7_IS9_EEEE: ## @_ZN2cv12_OutputArrayC1INS_6Point_IiEEEERNSt3__16vectorINS5_IT_NS4_9allocatorIS6_EEEENS7_IS9_EEEE
	.cfi_startproc
## BB#0:
	pushq	%rbp
Ltmp255:
	.cfi_def_cfa_offset 16
Ltmp256:
	.cfi_offset %rbp, -16
	movq	%rsp, %rbp
Ltmp257:
	.cfi_def_cfa_register %rbp
	subq	$16, %rsp
	movq	%rdi, -8(%rbp)
	movq	%rsi, -16(%rbp)
	movq	-8(%rbp), %rdi
	movq	-16(%rbp), %rsi
	callq	__ZN2cv12_OutputArrayC2INS_6Point_IiEEEERNSt3__16vectorINS5_IT_NS4_9allocatorIS6_EEEENS7_IS9_EEEE
	addq	$16, %rsp
	popq	%rbp
	ret
	.cfi_endproc

	.globl	__ZN2cv12_OutputArrayC1INS_3VecIiLi4EEEEERNSt3__16vectorIT_NS4_9allocatorIS6_EEEE
	.weak_def_can_be_hidden	__ZN2cv12_OutputArrayC1INS_3VecIiLi4EEEEERNSt3__16vectorIT_NS4_9allocatorIS6_EEEE
	.align	4, 0x90
__ZN2cv12_OutputArrayC1INS_3VecIiLi4EEEEERNSt3__16vectorIT_NS4_9allocatorIS6_EEEE: ## @_ZN2cv12_OutputArrayC1INS_3VecIiLi4EEEEERNSt3__16vectorIT_NS4_9allocatorIS6_EEEE
	.cfi_startproc
## BB#0:
	pushq	%rbp
Ltmp260:
	.cfi_def_cfa_offset 16
Ltmp261:
	.cfi_offset %rbp, -16
	movq	%rsp, %rbp
Ltmp262:
	.cfi_def_cfa_register %rbp
	subq	$16, %rsp
	movq	%rdi, -8(%rbp)
	movq	%rsi, -16(%rbp)
	movq	-8(%rbp), %rdi
	movq	-16(%rbp), %rsi
	callq	__ZN2cv12_OutputArrayC2INS_3VecIiLi4EEEEERNSt3__16vectorIT_NS4_9allocatorIS6_EEEE
	addq	$16, %rsp
	popq	%rbp
	ret
	.cfi_endproc

	.globl	__ZN2cv3MatC1INS_6Point_IiEEEERKNSt3__16vectorIT_NS4_9allocatorIS6_EEEEb
	.weak_def_can_be_hidden	__ZN2cv3MatC1INS_6Point_IiEEEERKNSt3__16vectorIT_NS4_9allocatorIS6_EEEEb
	.align	4, 0x90
__ZN2cv3MatC1INS_6Point_IiEEEERKNSt3__16vectorIT_NS4_9allocatorIS6_EEEEb: ## @_ZN2cv3MatC1INS_6Point_IiEEEERKNSt3__16vectorIT_NS4_9allocatorIS6_EEEEb
	.cfi_startproc
## BB#0:
	pushq	%rbp
Ltmp265:
	.cfi_def_cfa_offset 16
Ltmp266:
	.cfi_offset %rbp, -16
	movq	%rsp, %rbp
Ltmp267:
	.cfi_def_cfa_register %rbp
	subq	$32, %rsp
	movb	%dl, %al
	movq	%rdi, -8(%rbp)
	movq	%rsi, -16(%rbp)
	andb	$1, %al
	movb	%al, -17(%rbp)
	movq	-8(%rbp), %rdi
	movb	-17(%rbp), %al
	movq	-16(%rbp), %rsi
	andb	$1, %al
	movzbl	%al, %edx
	callq	__ZN2cv3MatC2INS_6Point_IiEEEERKNSt3__16vectorIT_NS4_9allocatorIS6_EEEEb
	addq	$32, %rsp
	popq	%rbp
	ret
	.cfi_endproc

	.globl	__ZN2cv3VecIiLi4EEixEi
	.weak_def_can_be_hidden	__ZN2cv3VecIiLi4EEixEi
	.align	4, 0x90
__ZN2cv3VecIiLi4EEixEi:                 ## @_ZN2cv3VecIiLi4EEixEi
	.cfi_startproc
## BB#0:
	pushq	%rbp
Ltmp270:
	.cfi_def_cfa_offset 16
Ltmp271:
	.cfi_offset %rbp, -16
	movq	%rsp, %rbp
Ltmp272:
	.cfi_def_cfa_register %rbp
	movq	%rdi, -8(%rbp)
	movl	%esi, -12(%rbp)
	movq	-8(%rbp), %rdi
	movslq	-12(%rbp), %rax
	shlq	$2, %rax
	addq	%rax, %rdi
	movq	%rdi, %rax
	popq	%rbp
	ret
	.cfi_endproc

	.globl	__ZN2cv6Point_IiEC1ERKS1_
	.weak_def_can_be_hidden	__ZN2cv6Point_IiEC1ERKS1_
	.align	4, 0x90
__ZN2cv6Point_IiEC1ERKS1_:              ## @_ZN2cv6Point_IiEC1ERKS1_
	.cfi_startproc
## BB#0:
	pushq	%rbp
Ltmp275:
	.cfi_def_cfa_offset 16
Ltmp276:
	.cfi_offset %rbp, -16
	movq	%rsp, %rbp
Ltmp277:
	.cfi_def_cfa_register %rbp
	subq	$16, %rsp
	movq	%rdi, -8(%rbp)
	movq	%rsi, -16(%rbp)
	movq	-8(%rbp), %rdi
	movq	-16(%rbp), %rsi
	callq	__ZN2cv6Point_IiEC2ERKS1_
	addq	$16, %rsp
	popq	%rbp
	ret
	.cfi_endproc

	.globl	__ZN2cv7Scalar_IdEC1Ed
	.weak_def_can_be_hidden	__ZN2cv7Scalar_IdEC1Ed
	.align	4, 0x90
__ZN2cv7Scalar_IdEC1Ed:                 ## @_ZN2cv7Scalar_IdEC1Ed
	.cfi_startproc
## BB#0:
	pushq	%rbp
Ltmp280:
	.cfi_def_cfa_offset 16
Ltmp281:
	.cfi_offset %rbp, -16
	movq	%rsp, %rbp
Ltmp282:
	.cfi_def_cfa_register %rbp
	subq	$16, %rsp
	movq	%rdi, -8(%rbp)
	movsd	%xmm0, -16(%rbp)
	movq	-8(%rbp), %rdi
	movsd	-16(%rbp), %xmm0
	callq	__ZN2cv7Scalar_IdEC2Ed
	addq	$16, %rsp
	popq	%rbp
	ret
	.cfi_endproc

	.globl	__ZNSt3__16vectorIN2cv3VecIiLi4EEENS_9allocatorIS3_EEED1Ev
	.weak_def_can_be_hidden	__ZNSt3__16vectorIN2cv3VecIiLi4EEENS_9allocatorIS3_EEED1Ev
	.align	4, 0x90
__ZNSt3__16vectorIN2cv3VecIiLi4EEENS_9allocatorIS3_EEED1Ev: ## @_ZNSt3__16vectorIN2cv3VecIiLi4EEENS_9allocatorIS3_EEED1Ev
	.cfi_startproc
## BB#0:
	pushq	%rbp
Ltmp285:
	.cfi_def_cfa_offset 16
Ltmp286:
	.cfi_offset %rbp, -16
	movq	%rsp, %rbp
Ltmp287:
	.cfi_def_cfa_register %rbp
	subq	$16, %rsp
	movq	%rdi, -8(%rbp)
	movq	-8(%rbp), %rdi
	callq	__ZNSt3__16vectorIN2cv3VecIiLi4EEENS_9allocatorIS3_EEED2Ev
	addq	$16, %rsp
	popq	%rbp
	ret
	.cfi_endproc

	.globl	__ZNSt3__16vectorINS0_IN2cv6Point_IiEENS_9allocatorIS3_EEEENS4_IS6_EEED1Ev
	.weak_def_can_be_hidden	__ZNSt3__16vectorINS0_IN2cv6Point_IiEENS_9allocatorIS3_EEEENS4_IS6_EEED1Ev
	.align	4, 0x90
__ZNSt3__16vectorINS0_IN2cv6Point_IiEENS_9allocatorIS3_EEEENS4_IS6_EEED1Ev: ## @_ZNSt3__16vectorINS0_IN2cv6Point_IiEENS_9allocatorIS3_EEEENS4_IS6_EEED1Ev
	.cfi_startproc
## BB#0:
	pushq	%rbp
Ltmp290:
	.cfi_def_cfa_offset 16
Ltmp291:
	.cfi_offset %rbp, -16
	movq	%rsp, %rbp
Ltmp292:
	.cfi_def_cfa_register %rbp
	subq	$16, %rsp
	movq	%rdi, -8(%rbp)
	movq	-8(%rbp), %rdi
	callq	__ZNSt3__16vectorINS0_IN2cv6Point_IiEENS_9allocatorIS3_EEEENS4_IS6_EEED2Ev
	addq	$16, %rsp
	popq	%rbp
	ret
	.cfi_endproc

	.section	__TEXT,__text,regular,pure_instructions
	.globl	__ZN11TrackObject11intToStringEi
	.align	4, 0x90
__ZN11TrackObject11intToStringEi:       ## @_ZN11TrackObject11intToStringEi
	.cfi_startproc
	.cfi_personality 155, ___gxx_personality_v0
Leh_func_begin24:
	.cfi_lsda 16, Lexception24
## BB#0:
	pushq	%rbp
Ltmp329:
	.cfi_def_cfa_offset 16
Ltmp330:
	.cfi_offset %rbp, -16
	movq	%rsp, %rbp
Ltmp331:
	.cfi_def_cfa_register %rbp
	subq	$832, %rsp              ## imm = 0x340
	movq	%rdi, %rax
	movq	%rsi, -408(%rbp)
	movl	%edx, -412(%rbp)
	leaq	-696(%rbp), %rsi
	movq	%rsi, -376(%rbp)
	movl	$24, -380(%rbp)
	movq	-376(%rbp), %rsi
	movq	%rsi, %rcx
	subq	$-128, %rcx
	movq	%rcx, -368(%rbp)
	movq	%rcx, -360(%rbp)
	movq	__ZTVNSt3__18ios_baseE@GOTPCREL(%rip), %rcx
	addq	$16, %rcx
	movq	%rcx, 128(%rsi)
	movq	__ZTVNSt3__19basic_iosIcNS_11char_traitsIcEEEE@GOTPCREL(%rip), %rcx
	addq	$16, %rcx
	movq	%rcx, 128(%rsi)
	movq	__ZTVNSt3__118basic_stringstreamIcNS_11char_traitsIcEENS_9allocatorIcEEEE@GOTPCREL(%rip), %rcx
	movq	%rcx, %r8
	addq	$24, %r8
	movq	%r8, (%rsi)
	movq	%rcx, %r8
	addq	$104, %r8
	movq	%r8, 128(%rsi)
	addq	$64, %rcx
	movq	%rcx, 16(%rsi)
	movq	%rsi, %rcx
	addq	$24, %rcx
	movq	%rsi, -320(%rbp)
	movq	__ZTTNSt3__118basic_stringstreamIcNS_11char_traitsIcEENS_9allocatorIcEEEE@GOTPCREL(%rip), %r8
	addq	$8, %r8
	movq	%r8, -328(%rbp)
	movq	%rcx, -336(%rbp)
	movq	-320(%rbp), %r8
	movq	-328(%rbp), %r9
	movq	%r9, %r10
	addq	$8, %r10
	movq	%r8, -296(%rbp)
	movq	%r10, -304(%rbp)
	movq	%rcx, -312(%rbp)
	movq	-296(%rbp), %rcx
	movq	-304(%rbp), %r10
	movq	(%r10), %r11
	movq	%r11, (%rcx)
	movq	8(%r10), %r10
	movq	-24(%r11), %r11
	movq	%r10, (%rcx,%r11)
	movq	$0, 8(%rcx)
	movq	(%rcx), %r10
	movq	-24(%r10), %r10
	addq	%r10, %rcx
	movq	-312(%rbp), %r10
	movq	%rcx, -280(%rbp)
	movq	%r10, -288(%rbp)
	movq	-280(%rbp), %rcx
Ltmp293:
	movq	%rdi, -728(%rbp)        ## 8-byte Spill
	movq	%rcx, %rdi
	movq	%rsi, -736(%rbp)        ## 8-byte Spill
	movq	%r10, %rsi
	movq	%rax, -744(%rbp)        ## 8-byte Spill
	movq	%rcx, -752(%rbp)        ## 8-byte Spill
	movq	%r8, -760(%rbp)         ## 8-byte Spill
	movq	%r9, -768(%rbp)         ## 8-byte Spill
	callq	__ZNSt3__18ios_base4initEPv
Ltmp294:
	jmp	LBB24_1
LBB24_1:                                ## %_ZNSt3__114basic_iostreamIcNS_11char_traitsIcEEEC2EPNS_15basic_streambufIcS2_EE.exit.i
	movq	-752(%rbp), %rax        ## 8-byte Reload
	movq	$0, 136(%rax)
	movl	$-1, 144(%rax)
	movq	-760(%rbp), %rcx        ## 8-byte Reload
	addq	$16, %rcx
	movq	-768(%rbp), %rdx        ## 8-byte Reload
	addq	$24, %rdx
	movq	%rcx, -264(%rbp)
	movq	%rdx, -272(%rbp)
	movq	-264(%rbp), %rcx
	movq	-768(%rbp), %rdx        ## 8-byte Reload
	movq	24(%rdx), %rsi
	movq	%rsi, (%rcx)
	movq	32(%rdx), %rdi
	movq	-24(%rsi), %rsi
	movq	%rdi, (%rcx,%rsi)
	movq	(%rdx), %rcx
	movq	-760(%rbp), %rsi        ## 8-byte Reload
	movq	%rcx, (%rsi)
	movq	40(%rdx), %rdi
	movq	-24(%rcx), %rcx
	movq	%rdi, (%rsi,%rcx)
	movq	48(%rdx), %rcx
	movq	%rcx, 16(%rsi)
	movq	__ZTVNSt3__118basic_stringstreamIcNS_11char_traitsIcEENS_9allocatorIcEEEE@GOTPCREL(%rip), %rcx
	movq	%rcx, %rdi
	addq	$24, %rdi
	movq	-736(%rbp), %r8         ## 8-byte Reload
	movq	%rdi, (%r8)
	movq	%rcx, %rdi
	addq	$104, %rdi
	movq	%rdi, 128(%r8)
	addq	$64, %rcx
	movq	%rcx, 16(%r8)
	addq	$24, %r8
	movl	-380(%rbp), %r9d
	movq	%r8, -248(%rbp)
	movl	%r9d, -252(%rbp)
	movq	-248(%rbp), %rcx
	movq	%rcx, -192(%rbp)
	movl	%r9d, -196(%rbp)
	movq	-192(%rbp), %rcx
Ltmp296:
	movq	%rcx, %rdi
	movq	%rcx, -776(%rbp)        ## 8-byte Spill
	callq	__ZNSt3__115basic_streambufIcNS_11char_traitsIcEEEC2Ev
Ltmp297:
	jmp	LBB24_2
LBB24_2:                                ## %.noexc.i
	movq	__ZTVNSt3__115basic_stringbufIcNS_11char_traitsIcEENS_9allocatorIcEEEE@GOTPCREL(%rip), %rax
	addq	$16, %rax
	movq	-776(%rbp), %rcx        ## 8-byte Reload
	movq	%rax, (%rcx)
	addq	$64, %rcx
	movq	%rcx, -184(%rbp)
	movq	-184(%rbp), %rax
	movq	%rax, -176(%rbp)
	movq	-176(%rbp), %rax
	movq	%rax, -168(%rbp)
	movq	-168(%rbp), %rdx
	movq	%rdx, -160(%rbp)
	movq	-160(%rbp), %rdx
	movq	%rdx, -152(%rbp)
	movq	-152(%rbp), %rdx
	movq	%rdx, -144(%rbp)
	movq	%rax, -120(%rbp)
	movq	-120(%rbp), %rax
	movq	%rax, -112(%rbp)
	movq	-112(%rbp), %rax
	movq	%rax, -104(%rbp)
	movq	-104(%rbp), %rax
	movq	%rax, -128(%rbp)
	movl	$0, -132(%rbp)
	movq	%rcx, -784(%rbp)        ## 8-byte Spill
LBB24_3:                                ## =>This Inner Loop Header: Depth=1
	cmpl	$3, -132(%rbp)
	jae	LBB24_5
## BB#4:                                ##   in Loop: Header=BB24_3 Depth=1
	movl	-132(%rbp), %eax
	movl	%eax, %ecx
	movq	-128(%rbp), %rdx
	movq	$0, (%rdx,%rcx,8)
	movl	-132(%rbp), %eax
	addl	$1, %eax
	movl	%eax, -132(%rbp)
	jmp	LBB24_3
LBB24_5:                                ## %_ZNSt3__112basic_stringIcNS_11char_traitsIcEENS_9allocatorIcEEEC1Ev.exit.i.i.i
	leaq	-240(%rbp), %rax
	movq	-776(%rbp), %rcx        ## 8-byte Reload
	movq	$0, 88(%rcx)
	movl	-196(%rbp), %edx
	movl	%edx, 96(%rcx)
	movq	%rax, -96(%rbp)
	movq	-96(%rbp), %rax
	movq	%rax, -88(%rbp)
	movq	-88(%rbp), %rax
	movq	%rax, -80(%rbp)
	movq	-80(%rbp), %rsi
	movq	%rsi, -72(%rbp)
	movq	-72(%rbp), %rsi
	movq	%rsi, -64(%rbp)
	movq	-64(%rbp), %rsi
	movq	%rsi, -56(%rbp)
	movq	%rax, -32(%rbp)
	movq	-32(%rbp), %rax
	movq	%rax, -24(%rbp)
	movq	-24(%rbp), %rax
	movq	%rax, -16(%rbp)
	movq	-16(%rbp), %rax
	movq	%rax, -40(%rbp)
	movl	$0, -44(%rbp)
LBB24_6:                                ## =>This Inner Loop Header: Depth=1
	cmpl	$3, -44(%rbp)
	jae	LBB24_8
## BB#7:                                ##   in Loop: Header=BB24_6 Depth=1
	movl	-44(%rbp), %eax
	movl	%eax, %ecx
	movq	-40(%rbp), %rdx
	movq	$0, (%rdx,%rcx,8)
	movl	-44(%rbp), %eax
	addl	$1, %eax
	movl	%eax, -44(%rbp)
	jmp	LBB24_6
LBB24_8:                                ## %_ZNSt3__112basic_stringIcNS_11char_traitsIcEENS_9allocatorIcEEEC1Ev.exit3.i.i.i
Ltmp299:
	leaq	-240(%rbp), %rsi
	movq	-776(%rbp), %rdi        ## 8-byte Reload
	callq	__ZNSt3__115basic_stringbufIcNS_11char_traitsIcEENS_9allocatorIcEEE3strERKNS_12basic_stringIcS2_S4_EE
Ltmp300:
	jmp	LBB24_9
LBB24_9:
Ltmp304:
	leaq	-240(%rbp), %rdi
	callq	__ZNSt3__112basic_stringIcNS_11char_traitsIcEENS_9allocatorIcEEED1Ev
Ltmp305:
	jmp	LBB24_24
LBB24_10:
Ltmp306:
	movl	%edx, %ecx
	movq	%rax, -208(%rbp)
	movl	%ecx, -212(%rbp)
	jmp	LBB24_13
LBB24_11:
Ltmp301:
	movl	%edx, %ecx
	movq	%rax, -208(%rbp)
	movl	%ecx, -212(%rbp)
Ltmp302:
	leaq	-240(%rbp), %rdi
	callq	__ZNSt3__112basic_stringIcNS_11char_traitsIcEENS_9allocatorIcEEED1Ev
Ltmp303:
	jmp	LBB24_12
LBB24_12:
	jmp	LBB24_13
LBB24_13:
Ltmp307:
	movq	-784(%rbp), %rdi        ## 8-byte Reload
	callq	__ZNSt3__112basic_stringIcNS_11char_traitsIcEENS_9allocatorIcEEED1Ev
Ltmp308:
	jmp	LBB24_14
LBB24_14:
Ltmp309:
	movq	-776(%rbp), %rdi        ## 8-byte Reload
	callq	__ZNSt3__115basic_streambufIcNS_11char_traitsIcEEED2Ev
Ltmp310:
	jmp	LBB24_15
LBB24_15:
	movq	-208(%rbp), %rax
	movl	-212(%rbp), %ecx
	movq	%rax, -792(%rbp)        ## 8-byte Spill
	movl	%ecx, -796(%rbp)        ## 4-byte Spill
	jmp	LBB24_19
LBB24_16:
Ltmp311:
	movl	%edx, %ecx
	movq	%rax, %rdi
	movl	%ecx, -800(%rbp)        ## 4-byte Spill
	callq	___clang_call_terminate
LBB24_17:
Ltmp295:
	movl	%edx, %ecx
	movq	%rax, -392(%rbp)
	movl	%ecx, -396(%rbp)
	jmp	LBB24_21
LBB24_18:
Ltmp298:
	movl	%edx, %ecx
	movq	%rax, -792(%rbp)        ## 8-byte Spill
	movl	%ecx, -796(%rbp)        ## 4-byte Spill
LBB24_19:                               ## %.body.i
	movl	-796(%rbp), %eax        ## 4-byte Reload
	movq	-792(%rbp), %rcx        ## 8-byte Reload
	movq	%rcx, -392(%rbp)
	movl	%eax, -396(%rbp)
Ltmp312:
	movq	__ZTTNSt3__118basic_stringstreamIcNS_11char_traitsIcEENS_9allocatorIcEEEE@GOTPCREL(%rip), %rcx
	addq	$8, %rcx
	movq	-736(%rbp), %rdi        ## 8-byte Reload
	movq	%rcx, %rsi
	callq	__ZNSt3__114basic_iostreamIcNS_11char_traitsIcEEED2Ev
Ltmp313:
	jmp	LBB24_20
LBB24_20:
	jmp	LBB24_21
LBB24_21:
	movq	-736(%rbp), %rax        ## 8-byte Reload
	subq	$-128, %rax
Ltmp314:
	movq	%rax, %rdi
	callq	__ZNSt3__19basic_iosIcNS_11char_traitsIcEEED2Ev
Ltmp315:
	jmp	LBB24_22
LBB24_22:
	movq	-392(%rbp), %rax
	movq	%rax, -808(%rbp)        ## 8-byte Spill
	jmp	LBB24_35
LBB24_23:
Ltmp316:
	movl	%edx, %ecx
	movq	%rax, %rdi
	movl	%ecx, -812(%rbp)        ## 4-byte Spill
	callq	___clang_call_terminate
LBB24_24:                               ## %_ZNSt3__118basic_stringstreamIcNS_11char_traitsIcEENS_9allocatorIcEEEC1Ej.exit
	leaq	-680(%rbp), %rdi
	movl	-412(%rbp), %esi
Ltmp317:
	callq	__ZNSt3__113basic_ostreamIcNS_11char_traitsIcEEElsEi
Ltmp318:
	movq	%rax, -824(%rbp)        ## 8-byte Spill
	jmp	LBB24_25
LBB24_25:
	movb	$0, -709(%rbp)
	leaq	-696(%rbp), %rax
	movq	%rax, -8(%rbp)
	leaq	-672(%rbp), %rsi
Ltmp319:
	movq	-728(%rbp), %rdi        ## 8-byte Reload
	callq	__ZNKSt3__115basic_stringbufIcNS_11char_traitsIcEENS_9allocatorIcEEE3strEv
Ltmp320:
	jmp	LBB24_26
LBB24_26:                               ## %_ZNKSt3__118basic_stringstreamIcNS_11char_traitsIcEENS_9allocatorIcEEE3strEv.exit
	jmp	LBB24_27
LBB24_27:
	movb	$1, -709(%rbp)
	movl	$1, -716(%rbp)
	testb	$1, -709(%rbp)
	jne	LBB24_31
	jmp	LBB24_29
LBB24_28:
Ltmp323:
	movl	%edx, %ecx
	movq	%rax, -704(%rbp)
	movl	%ecx, -708(%rbp)
Ltmp324:
	leaq	-696(%rbp), %rdi
	callq	__ZNSt3__118basic_stringstreamIcNS_11char_traitsIcEENS_9allocatorIcEEED1Ev
Ltmp325:
	jmp	LBB24_32
LBB24_29:
Ltmp321:
	movq	-728(%rbp), %rdi        ## 8-byte Reload
	callq	__ZNSt3__112basic_stringIcNS_11char_traitsIcEENS_9allocatorIcEEED1Ev
Ltmp322:
	jmp	LBB24_30
LBB24_30:
	jmp	LBB24_31
LBB24_31:
	leaq	-696(%rbp), %rdi
	callq	__ZNSt3__118basic_stringstreamIcNS_11char_traitsIcEENS_9allocatorIcEEED1Ev
	movq	-744(%rbp), %rax        ## 8-byte Reload
	addq	$832, %rsp              ## imm = 0x340
	popq	%rbp
	ret
LBB24_32:
	jmp	LBB24_33
LBB24_33:
	movq	-704(%rbp), %rax
	movq	%rax, -808(%rbp)        ## 8-byte Spill
	jmp	LBB24_35
LBB24_34:
Ltmp326:
	movl	%edx, %ecx
	movq	%rax, %rdi
	movl	%ecx, -828(%rbp)        ## 4-byte Spill
	callq	___clang_call_terminate
LBB24_35:                               ## %unwind_resume
	movq	-808(%rbp), %rax        ## 8-byte Reload
	movq	%rax, %rdi
	callq	__Unwind_Resume
	.cfi_endproc
Leh_func_end24:
	.section	__TEXT,__gcc_except_tab
	.align	2
GCC_except_table24:
Lexception24:
	.byte	255                     ## @LPStart Encoding = omit
	.byte	155                     ## @TType Encoding = indirect pcrel sdata4
	.asciz	"\217\201"              ## @TType base offset
	.byte	3                       ## Call site Encoding = udata4
	.ascii	"\202\001"              ## Call site table length
Lset94 = Ltmp293-Leh_func_begin24       ## >> Call Site 1 <<
	.long	Lset94
Lset95 = Ltmp294-Ltmp293                ##   Call between Ltmp293 and Ltmp294
	.long	Lset95
Lset96 = Ltmp295-Leh_func_begin24       ##     jumps to Ltmp295
	.long	Lset96
	.byte	0                       ##   On action: cleanup
Lset97 = Ltmp296-Leh_func_begin24       ## >> Call Site 2 <<
	.long	Lset97
Lset98 = Ltmp297-Ltmp296                ##   Call between Ltmp296 and Ltmp297
	.long	Lset98
Lset99 = Ltmp298-Leh_func_begin24       ##     jumps to Ltmp298
	.long	Lset99
	.byte	0                       ##   On action: cleanup
Lset100 = Ltmp299-Leh_func_begin24      ## >> Call Site 3 <<
	.long	Lset100
Lset101 = Ltmp300-Ltmp299               ##   Call between Ltmp299 and Ltmp300
	.long	Lset101
Lset102 = Ltmp301-Leh_func_begin24      ##     jumps to Ltmp301
	.long	Lset102
	.byte	0                       ##   On action: cleanup
Lset103 = Ltmp304-Leh_func_begin24      ## >> Call Site 4 <<
	.long	Lset103
Lset104 = Ltmp305-Ltmp304               ##   Call between Ltmp304 and Ltmp305
	.long	Lset104
Lset105 = Ltmp306-Leh_func_begin24      ##     jumps to Ltmp306
	.long	Lset105
	.byte	0                       ##   On action: cleanup
Lset106 = Ltmp302-Leh_func_begin24      ## >> Call Site 5 <<
	.long	Lset106
Lset107 = Ltmp310-Ltmp302               ##   Call between Ltmp302 and Ltmp310
	.long	Lset107
Lset108 = Ltmp311-Leh_func_begin24      ##     jumps to Ltmp311
	.long	Lset108
	.byte	3                       ##   On action: 2
Lset109 = Ltmp312-Leh_func_begin24      ## >> Call Site 6 <<
	.long	Lset109
Lset110 = Ltmp315-Ltmp312               ##   Call between Ltmp312 and Ltmp315
	.long	Lset110
Lset111 = Ltmp316-Leh_func_begin24      ##     jumps to Ltmp316
	.long	Lset111
	.byte	5                       ##   On action: 3
Lset112 = Ltmp317-Leh_func_begin24      ## >> Call Site 7 <<
	.long	Lset112
Lset113 = Ltmp320-Ltmp317               ##   Call between Ltmp317 and Ltmp320
	.long	Lset113
Lset114 = Ltmp323-Leh_func_begin24      ##     jumps to Ltmp323
	.long	Lset114
	.byte	0                       ##   On action: cleanup
Lset115 = Ltmp324-Leh_func_begin24      ## >> Call Site 8 <<
	.long	Lset115
Lset116 = Ltmp325-Ltmp324               ##   Call between Ltmp324 and Ltmp325
	.long	Lset116
Lset117 = Ltmp326-Leh_func_begin24      ##     jumps to Ltmp326
	.long	Lset117
	.byte	5                       ##   On action: 3
Lset118 = Ltmp321-Leh_func_begin24      ## >> Call Site 9 <<
	.long	Lset118
Lset119 = Ltmp322-Ltmp321               ##   Call between Ltmp321 and Ltmp322
	.long	Lset119
Lset120 = Ltmp323-Leh_func_begin24      ##     jumps to Ltmp323
	.long	Lset120
	.byte	0                       ##   On action: cleanup
Lset121 = Ltmp322-Leh_func_begin24      ## >> Call Site 10 <<
	.long	Lset121
Lset122 = Leh_func_end24-Ltmp322        ##   Call between Ltmp322 and Leh_func_end24
	.long	Lset122
	.long	0                       ##     has no landing pad
	.byte	0                       ##   On action: cleanup
	.byte	0                       ## >> Action Record 1 <<
                                        ##   Cleanup
	.byte	0                       ##   No further actions
	.byte	1                       ## >> Action Record 2 <<
                                        ##   Catch TypeInfo 1
	.byte	125                     ##   Continue to action 1
	.byte	1                       ## >> Action Record 3 <<
                                        ##   Catch TypeInfo 1
	.byte	0                       ##   No further actions
                                        ## >> Catch TypeInfos <<
	.long	0                       ## TypeInfo 1
	.align	2

	.section	__TEXT,__textcoal_nt,coalesced,pure_instructions
	.globl	__ZNSt3__118basic_stringstreamIcNS_11char_traitsIcEENS_9allocatorIcEEED1Ev
	.weak_def_can_be_hidden	__ZNSt3__118basic_stringstreamIcNS_11char_traitsIcEENS_9allocatorIcEEED1Ev
	.align	4, 0x90
__ZNSt3__118basic_stringstreamIcNS_11char_traitsIcEENS_9allocatorIcEEED1Ev: ## @_ZNSt3__118basic_stringstreamIcNS_11char_traitsIcEENS_9allocatorIcEEED1Ev
	.cfi_startproc
	.cfi_personality 155, ___gxx_personality_v0
Leh_func_begin25:
	.cfi_lsda 16, Lexception25
## BB#0:
	pushq	%rbp
Ltmp340:
	.cfi_def_cfa_offset 16
Ltmp341:
	.cfi_offset %rbp, -16
	movq	%rsp, %rbp
Ltmp342:
	.cfi_def_cfa_register %rbp
	subq	$48, %rsp
	movq	%rdi, -8(%rbp)
	movq	%rdi, %rax
Ltmp332:
	movq	__ZTTNSt3__118basic_stringstreamIcNS_11char_traitsIcEENS_9allocatorIcEEEE@GOTPCREL(%rip), %rsi
	movq	%rax, -32(%rbp)         ## 8-byte Spill
	callq	__ZNSt3__118basic_stringstreamIcNS_11char_traitsIcEENS_9allocatorIcEEED2Ev
Ltmp333:
	jmp	LBB25_1
LBB25_1:
	movq	-32(%rbp), %rax         ## 8-byte Reload
	addq	$128, %rax
	movq	%rax, %rdi
	callq	__ZNSt3__19basic_iosIcNS_11char_traitsIcEEED2Ev
	addq	$48, %rsp
	popq	%rbp
	ret
LBB25_2:
Ltmp334:
	movl	%edx, %ecx
	movq	%rax, -16(%rbp)
	movl	%ecx, -20(%rbp)
	movq	-32(%rbp), %rax         ## 8-byte Reload
	subq	$-128, %rax
Ltmp335:
	movq	%rax, %rdi
	callq	__ZNSt3__19basic_iosIcNS_11char_traitsIcEEED2Ev
Ltmp336:
	jmp	LBB25_3
LBB25_3:
	jmp	LBB25_4
LBB25_4:
	movq	-16(%rbp), %rdi
	callq	__Unwind_Resume
LBB25_5:
Ltmp337:
	movl	%edx, %ecx
	movq	%rax, %rdi
	movl	%ecx, -36(%rbp)         ## 4-byte Spill
	callq	___clang_call_terminate
	.cfi_endproc
Leh_func_end25:
	.section	__TEXT,__gcc_except_tab
	.align	2
GCC_except_table25:
Lexception25:
	.byte	255                     ## @LPStart Encoding = omit
	.byte	155                     ## @TType Encoding = indirect pcrel sdata4
	.asciz	"\274"                  ## @TType base offset
	.byte	3                       ## Call site Encoding = udata4
	.byte	52                      ## Call site table length
Lset123 = Ltmp332-Leh_func_begin25      ## >> Call Site 1 <<
	.long	Lset123
Lset124 = Ltmp333-Ltmp332               ##   Call between Ltmp332 and Ltmp333
	.long	Lset124
Lset125 = Ltmp334-Leh_func_begin25      ##     jumps to Ltmp334
	.long	Lset125
	.byte	0                       ##   On action: cleanup
Lset126 = Ltmp333-Leh_func_begin25      ## >> Call Site 2 <<
	.long	Lset126
Lset127 = Ltmp335-Ltmp333               ##   Call between Ltmp333 and Ltmp335
	.long	Lset127
	.long	0                       ##     has no landing pad
	.byte	0                       ##   On action: cleanup
Lset128 = Ltmp335-Leh_func_begin25      ## >> Call Site 3 <<
	.long	Lset128
Lset129 = Ltmp336-Ltmp335               ##   Call between Ltmp335 and Ltmp336
	.long	Lset129
Lset130 = Ltmp337-Leh_func_begin25      ##     jumps to Ltmp337
	.long	Lset130
	.byte	1                       ##   On action: 1
Lset131 = Ltmp336-Leh_func_begin25      ## >> Call Site 4 <<
	.long	Lset131
Lset132 = Leh_func_end25-Ltmp336        ##   Call between Ltmp336 and Leh_func_end25
	.long	Lset132
	.long	0                       ##     has no landing pad
	.byte	0                       ##   On action: cleanup
	.byte	1                       ## >> Action Record 1 <<
                                        ##   Catch TypeInfo 1
	.byte	0                       ##   No further actions
                                        ## >> Catch TypeInfos <<
	.long	0                       ## TypeInfo 1
	.align	2

	.section	__TEXT,__text,regular,pure_instructions
	.globl	__ZN11TrackObject9displayXYEv
	.align	4, 0x90
__ZN11TrackObject9displayXYEv:          ## @_ZN11TrackObject9displayXYEv
	.cfi_startproc
	.cfi_personality 155, ___gxx_personality_v0
Leh_func_begin26:
	.cfi_lsda 16, Lexception26
## BB#0:
	pushq	%rbp
Ltmp379:
	.cfi_def_cfa_offset 16
Ltmp380:
	.cfi_offset %rbp, -16
	movq	%rsp, %rbp
Ltmp381:
	.cfi_def_cfa_register %rbp
	subq	$400, %rsp              ## imm = 0x190
	movq	%rdi, -80(%rbp)
	movq	%rdi, %rax
	movq	%rdi, %rcx
	addq	$72, %rcx
	movl	192(%rdi), %edx
	leaq	-152(%rbp), %rsi
	movq	%rdi, -296(%rbp)        ## 8-byte Spill
	movq	%rsi, %rdi
	movq	-296(%rbp), %r8         ## 8-byte Reload
	movq	%rsi, -304(%rbp)        ## 8-byte Spill
	movq	%r8, %rsi
	movq	%rax, -312(%rbp)        ## 8-byte Spill
	movq	%rcx, -320(%rbp)        ## 8-byte Spill
	callq	__ZN11TrackObject11intToStringEi
Ltmp343:
	leaq	L_.str2(%rip), %rdx
	leaq	-128(%rbp), %rdi
	movq	-304(%rbp), %rsi        ## 8-byte Reload
	callq	__ZNSt3__1plIcNS_11char_traitsIcEENS_9allocatorIcEEEENS_12basic_stringIT_T0_T1_EERKS9_PKS6_
Ltmp344:
	jmp	LBB26_1
LBB26_1:
	movq	-312(%rbp), %rax        ## 8-byte Reload
	movl	196(%rax), %edx
Ltmp345:
	leaq	-192(%rbp), %rdi
	movq	%rax, %rsi
	callq	__ZN11TrackObject11intToStringEi
Ltmp346:
	jmp	LBB26_2
LBB26_2:
Ltmp347:
	leaq	-104(%rbp), %rdi
	leaq	-128(%rbp), %rsi
	leaq	-192(%rbp), %rdx
	callq	__ZNSt3__1plIcNS_11char_traitsIcEENS_9allocatorIcEEEENS_12basic_stringIT_T0_T1_EERKS9_SB_
Ltmp348:
	jmp	LBB26_3
LBB26_3:
Ltmp349:
	leaq	-104(%rbp), %rsi
	movq	-320(%rbp), %rdi        ## 8-byte Reload
	callq	__ZNSt3__112basic_stringIcNS_11char_traitsIcEENS_9allocatorIcEEEaSERKS5_
Ltmp350:
	movq	%rax, -328(%rbp)        ## 8-byte Spill
	jmp	LBB26_4
LBB26_4:
Ltmp354:
	leaq	-104(%rbp), %rdi
	callq	__ZNSt3__112basic_stringIcNS_11char_traitsIcEENS_9allocatorIcEEED1Ev
Ltmp355:
	jmp	LBB26_5
LBB26_5:
Ltmp359:
	leaq	-192(%rbp), %rdi
	callq	__ZNSt3__112basic_stringIcNS_11char_traitsIcEENS_9allocatorIcEEED1Ev
Ltmp360:
	jmp	LBB26_6
LBB26_6:
Ltmp364:
	leaq	-128(%rbp), %rdi
	callq	__ZNSt3__112basic_stringIcNS_11char_traitsIcEENS_9allocatorIcEEED1Ev
Ltmp365:
	jmp	LBB26_7
LBB26_7:
	leaq	-152(%rbp), %rdi
	callq	__ZNSt3__112basic_stringIcNS_11char_traitsIcEENS_9allocatorIcEEED1Ev
	leaq	-200(%rbp), %rdi
	movq	-312(%rbp), %rax        ## 8-byte Reload
	movl	192(%rax), %ecx
	movl	%ecx, 40(%rax)
	movl	196(%rax), %ecx
	movl	%ecx, 44(%rax)
	addq	$96, %rax
	movq	-312(%rbp), %rdx        ## 8-byte Reload
	addq	$72, %rdx
	movq	-312(%rbp), %rsi        ## 8-byte Reload
	addq	$40, %rsi
	movq	%rdx, -336(%rbp)        ## 8-byte Spill
	movq	%rax, -344(%rbp)        ## 8-byte Spill
	callq	__ZN2cv6Point_IiEC1ERKS1_
	leaq	-232(%rbp), %rdi
	movq	-312(%rbp), %rax        ## 8-byte Reload
	movl	52(%rax), %ecx
	cvtss2sd	56(%rax), %xmm0
	cvtsi2sdl	60(%rax), %xmm1
	movsd	%xmm0, -352(%rbp)       ## 8-byte Spill
	movaps	%xmm1, %xmm0
	movl	%ecx, -356(%rbp)        ## 4-byte Spill
	callq	__ZN2cv7Scalar_IdEC1Ed
	leaq	-200(%rbp), %rdx
	leaq	-232(%rbp), %r8
	movl	$0, %ecx
	movq	-312(%rbp), %rax        ## 8-byte Reload
	movl	64(%rax), %r9d
	movl	68(%rax), %r10d
	movq	-344(%rbp), %rdi        ## 8-byte Reload
	movq	-336(%rbp), %rsi        ## 8-byte Reload
	movl	-356(%rbp), %r11d       ## 4-byte Reload
	movl	%ecx, -360(%rbp)        ## 4-byte Spill
	movl	%r11d, %ecx
	movsd	-352(%rbp), %xmm0       ## 8-byte Reload
	movl	%r10d, (%rsp)
	movl	$0, 8(%rsp)
	callq	__ZN2cv7putTextERNS_3MatERKNSt3__112basic_stringIcNS2_11char_traitsIcEENS2_9allocatorIcEEEENS_6Point_IiEEidNS_7Scalar_IdEEiib
	movq	-312(%rbp), %rax        ## 8-byte Reload
	testb	$1, 48(%rax)
	je	LBB26_24
## BB#8:
	leaq	-256(%rbp), %rax
	movq	%rax, -64(%rbp)
	leaq	L_.str3(%rip), %rax
	movq	%rax, -72(%rbp)
	movq	-64(%rbp), %rcx
	movq	%rcx, -48(%rbp)
	movq	%rax, -56(%rbp)
	movq	-48(%rbp), %rax
	movq	%rax, -40(%rbp)
	movq	%rax, -32(%rbp)
	movq	%rax, -24(%rbp)
	movq	%rax, -16(%rbp)
	movq	-56(%rbp), %rcx
	movq	%rcx, -8(%rbp)
	movq	%rcx, %rdi
	movq	%rax, -368(%rbp)        ## 8-byte Spill
	movq	%rcx, -376(%rbp)        ## 8-byte Spill
	callq	_strlen
	movq	-368(%rbp), %rdi        ## 8-byte Reload
	movq	-376(%rbp), %rsi        ## 8-byte Reload
	movq	%rax, %rdx
	callq	__ZNSt3__112basic_stringIcNS_11char_traitsIcEENS_9allocatorIcEEE6__initEPKcm
	movq	-312(%rbp), %rax        ## 8-byte Reload
	addq	$96, %rax
Ltmp369:
	leaq	-288(%rbp), %rdi
	movq	%rax, %rsi
	callq	__ZN2cv11_InputArrayC1ERKNS_3MatE
Ltmp370:
	jmp	LBB26_9
LBB26_9:
Ltmp371:
	leaq	-256(%rbp), %rdi
	leaq	-288(%rbp), %rsi
	callq	__ZN2cv6imshowERKNSt3__112basic_stringIcNS0_11char_traitsIcEENS0_9allocatorIcEEEERKNS_11_InputArrayE
Ltmp372:
	jmp	LBB26_10
LBB26_10:
	leaq	-256(%rbp), %rdi
	callq	__ZNSt3__112basic_stringIcNS_11char_traitsIcEENS_9allocatorIcEEED1Ev
	jmp	LBB26_24
LBB26_11:
Ltmp366:
	movl	%edx, %ecx
	movq	%rax, -160(%rbp)
	movl	%ecx, -164(%rbp)
	jmp	LBB26_20
LBB26_12:
Ltmp361:
	movl	%edx, %ecx
	movq	%rax, -160(%rbp)
	movl	%ecx, -164(%rbp)
	jmp	LBB26_18
LBB26_13:
Ltmp356:
	movl	%edx, %ecx
	movq	%rax, -160(%rbp)
	movl	%ecx, -164(%rbp)
	jmp	LBB26_16
LBB26_14:
Ltmp351:
	movl	%edx, %ecx
	movq	%rax, -160(%rbp)
	movl	%ecx, -164(%rbp)
Ltmp352:
	leaq	-104(%rbp), %rdi
	callq	__ZNSt3__112basic_stringIcNS_11char_traitsIcEENS_9allocatorIcEEED1Ev
Ltmp353:
	jmp	LBB26_15
LBB26_15:
	jmp	LBB26_16
LBB26_16:
Ltmp357:
	leaq	-192(%rbp), %rdi
	callq	__ZNSt3__112basic_stringIcNS_11char_traitsIcEENS_9allocatorIcEEED1Ev
Ltmp358:
	jmp	LBB26_17
LBB26_17:
	jmp	LBB26_18
LBB26_18:
Ltmp362:
	leaq	-128(%rbp), %rdi
	callq	__ZNSt3__112basic_stringIcNS_11char_traitsIcEENS_9allocatorIcEEED1Ev
Ltmp363:
	jmp	LBB26_19
LBB26_19:
	jmp	LBB26_20
LBB26_20:
Ltmp367:
	leaq	-152(%rbp), %rdi
	callq	__ZNSt3__112basic_stringIcNS_11char_traitsIcEENS_9allocatorIcEEED1Ev
Ltmp368:
	jmp	LBB26_21
LBB26_21:
	jmp	LBB26_25
LBB26_22:
Ltmp373:
	movl	%edx, %ecx
	movq	%rax, -160(%rbp)
	movl	%ecx, -164(%rbp)
Ltmp374:
	leaq	-256(%rbp), %rdi
	callq	__ZNSt3__112basic_stringIcNS_11char_traitsIcEENS_9allocatorIcEEED1Ev
Ltmp375:
	jmp	LBB26_23
LBB26_23:
	jmp	LBB26_25
LBB26_24:
	addq	$400, %rsp              ## imm = 0x190
	popq	%rbp
	ret
LBB26_25:
	movq	-160(%rbp), %rdi
	callq	__Unwind_Resume
LBB26_26:
Ltmp376:
	movl	%edx, %ecx
	movq	%rax, %rdi
	movl	%ecx, -380(%rbp)        ## 4-byte Spill
	callq	___clang_call_terminate
	.cfi_endproc
Leh_func_end26:
	.section	__TEXT,__gcc_except_tab
	.align	2
GCC_except_table26:
Lexception26:
	.byte	255                     ## @LPStart Encoding = omit
	.byte	155                     ## @TType Encoding = indirect pcrel sdata4
	.asciz	"\262\201\200"          ## @TType base offset
	.byte	3                       ## Call site Encoding = udata4
	.ascii	"\251\001"              ## Call site table length
Lset133 = Leh_func_begin26-Leh_func_begin26 ## >> Call Site 1 <<
	.long	Lset133
Lset134 = Ltmp343-Leh_func_begin26      ##   Call between Leh_func_begin26 and Ltmp343
	.long	Lset134
	.long	0                       ##     has no landing pad
	.byte	0                       ##   On action: cleanup
Lset135 = Ltmp343-Leh_func_begin26      ## >> Call Site 2 <<
	.long	Lset135
Lset136 = Ltmp344-Ltmp343               ##   Call between Ltmp343 and Ltmp344
	.long	Lset136
Lset137 = Ltmp366-Leh_func_begin26      ##     jumps to Ltmp366
	.long	Lset137
	.byte	0                       ##   On action: cleanup
Lset138 = Ltmp345-Leh_func_begin26      ## >> Call Site 3 <<
	.long	Lset138
Lset139 = Ltmp346-Ltmp345               ##   Call between Ltmp345 and Ltmp346
	.long	Lset139
Lset140 = Ltmp361-Leh_func_begin26      ##     jumps to Ltmp361
	.long	Lset140
	.byte	0                       ##   On action: cleanup
Lset141 = Ltmp347-Leh_func_begin26      ## >> Call Site 4 <<
	.long	Lset141
Lset142 = Ltmp348-Ltmp347               ##   Call between Ltmp347 and Ltmp348
	.long	Lset142
Lset143 = Ltmp356-Leh_func_begin26      ##     jumps to Ltmp356
	.long	Lset143
	.byte	0                       ##   On action: cleanup
Lset144 = Ltmp349-Leh_func_begin26      ## >> Call Site 5 <<
	.long	Lset144
Lset145 = Ltmp350-Ltmp349               ##   Call between Ltmp349 and Ltmp350
	.long	Lset145
Lset146 = Ltmp351-Leh_func_begin26      ##     jumps to Ltmp351
	.long	Lset146
	.byte	0                       ##   On action: cleanup
Lset147 = Ltmp354-Leh_func_begin26      ## >> Call Site 6 <<
	.long	Lset147
Lset148 = Ltmp355-Ltmp354               ##   Call between Ltmp354 and Ltmp355
	.long	Lset148
Lset149 = Ltmp356-Leh_func_begin26      ##     jumps to Ltmp356
	.long	Lset149
	.byte	0                       ##   On action: cleanup
Lset150 = Ltmp359-Leh_func_begin26      ## >> Call Site 7 <<
	.long	Lset150
Lset151 = Ltmp360-Ltmp359               ##   Call between Ltmp359 and Ltmp360
	.long	Lset151
Lset152 = Ltmp361-Leh_func_begin26      ##     jumps to Ltmp361
	.long	Lset152
	.byte	0                       ##   On action: cleanup
Lset153 = Ltmp364-Leh_func_begin26      ## >> Call Site 8 <<
	.long	Lset153
Lset154 = Ltmp365-Ltmp364               ##   Call between Ltmp364 and Ltmp365
	.long	Lset154
Lset155 = Ltmp366-Leh_func_begin26      ##     jumps to Ltmp366
	.long	Lset155
	.byte	0                       ##   On action: cleanup
Lset156 = Ltmp365-Leh_func_begin26      ## >> Call Site 9 <<
	.long	Lset156
Lset157 = Ltmp369-Ltmp365               ##   Call between Ltmp365 and Ltmp369
	.long	Lset157
	.long	0                       ##     has no landing pad
	.byte	0                       ##   On action: cleanup
Lset158 = Ltmp369-Leh_func_begin26      ## >> Call Site 10 <<
	.long	Lset158
Lset159 = Ltmp372-Ltmp369               ##   Call between Ltmp369 and Ltmp372
	.long	Lset159
Lset160 = Ltmp373-Leh_func_begin26      ##     jumps to Ltmp373
	.long	Lset160
	.byte	0                       ##   On action: cleanup
Lset161 = Ltmp372-Leh_func_begin26      ## >> Call Site 11 <<
	.long	Lset161
Lset162 = Ltmp352-Ltmp372               ##   Call between Ltmp372 and Ltmp352
	.long	Lset162
	.long	0                       ##     has no landing pad
	.byte	0                       ##   On action: cleanup
Lset163 = Ltmp352-Leh_func_begin26      ## >> Call Site 12 <<
	.long	Lset163
Lset164 = Ltmp375-Ltmp352               ##   Call between Ltmp352 and Ltmp375
	.long	Lset164
Lset165 = Ltmp376-Leh_func_begin26      ##     jumps to Ltmp376
	.long	Lset165
	.byte	1                       ##   On action: 1
Lset166 = Ltmp375-Leh_func_begin26      ## >> Call Site 13 <<
	.long	Lset166
Lset167 = Leh_func_end26-Ltmp375        ##   Call between Ltmp375 and Leh_func_end26
	.long	Lset167
	.long	0                       ##     has no landing pad
	.byte	0                       ##   On action: cleanup
	.byte	1                       ## >> Action Record 1 <<
                                        ##   Catch TypeInfo 1
	.byte	0                       ##   No further actions
                                        ## >> Catch TypeInfos <<
	.long	0                       ## TypeInfo 1
	.align	2

	.section	__TEXT,__textcoal_nt,coalesced,pure_instructions
	.globl	__ZNSt3__1plIcNS_11char_traitsIcEENS_9allocatorIcEEEENS_12basic_stringIT_T0_T1_EERKS9_SB_
	.weak_def_can_be_hidden	__ZNSt3__1plIcNS_11char_traitsIcEENS_9allocatorIcEEEENS_12basic_stringIT_T0_T1_EERKS9_SB_
	.align	4, 0x90
__ZNSt3__1plIcNS_11char_traitsIcEENS_9allocatorIcEEEENS_12basic_stringIT_T0_T1_EERKS9_SB_: ## @_ZNSt3__1plIcNS_11char_traitsIcEENS_9allocatorIcEEEENS_12basic_stringIT_T0_T1_EERKS9_SB_
	.cfi_startproc
	.cfi_personality 155, ___gxx_personality_v0
Leh_func_begin27:
	.cfi_lsda 16, Lexception27
## BB#0:
	pushq	%rbp
Ltmp392:
	.cfi_def_cfa_offset 16
Ltmp393:
	.cfi_offset %rbp, -16
	movq	%rsp, %rbp
Ltmp394:
	.cfi_def_cfa_register %rbp
	subq	$752, %rsp              ## imm = 0x2F0
	movq	%rdi, %rax
	leaq	-448(%rbp), %rcx
	leaq	-472(%rbp), %r8
	leaq	-600(%rbp), %r9
	movq	%rsi, -584(%rbp)
	movq	%rdx, -592(%rbp)
	movb	$0, -593(%rbp)
	movq	-584(%rbp), %rdx
	movq	%rdx, -576(%rbp)
	movq	-576(%rbp), %rdx
	movq	%rdx, -560(%rbp)
	movq	-560(%rbp), %rdx
	movq	%rdx, -552(%rbp)
	movq	-552(%rbp), %rdx
	movq	%rdx, -544(%rbp)
	movq	%rdi, -528(%rbp)
	movq	%r9, -536(%rbp)
	movq	-528(%rbp), %rdx
	movq	-536(%rbp), %rsi
	movq	%rdx, -504(%rbp)
	movq	%rsi, -512(%rbp)
	movq	-504(%rbp), %rdx
	movq	%rdx, -488(%rbp)
	movq	-488(%rbp), %rsi
	movq	%rsi, -464(%rbp)
	movq	-464(%rbp), %rsi
	movq	%r8, -456(%rbp)
	movq	%rsi, -440(%rbp)
	movq	%rcx, -432(%rbp)
	movq	%rdx, -408(%rbp)
	movq	-408(%rbp), %rcx
	movq	%rcx, -400(%rbp)
	movq	-400(%rbp), %rcx
	movq	%rcx, -392(%rbp)
	movq	-392(%rbp), %rcx
	movq	%rcx, -416(%rbp)
	movl	$0, -420(%rbp)
	movq	%rax, -648(%rbp)        ## 8-byte Spill
	movq	%rdi, -656(%rbp)        ## 8-byte Spill
LBB27_1:                                ## =>This Inner Loop Header: Depth=1
	cmpl	$3, -420(%rbp)
	jae	LBB27_3
## BB#2:                                ##   in Loop: Header=BB27_1 Depth=1
	movl	-420(%rbp), %eax
	movl	%eax, %ecx
	movq	-416(%rbp), %rdx
	movq	$0, (%rdx,%rcx,8)
	movl	-420(%rbp), %eax
	addl	$1, %eax
	movl	%eax, -420(%rbp)
	jmp	LBB27_1
LBB27_3:                                ## %_ZNSt3__112basic_stringIcNS_11char_traitsIcEENS_9allocatorIcEEEC1ERKS4_.exit
	movq	-584(%rbp), %rax
	movq	%rax, -80(%rbp)
	movq	-80(%rbp), %rax
	movq	%rax, -72(%rbp)
	movq	-72(%rbp), %rcx
	movq	%rcx, -64(%rbp)
	movq	-64(%rbp), %rcx
	movq	%rcx, -56(%rbp)
	movq	-56(%rbp), %rcx
	movzbl	(%rcx), %edx
	andl	$1, %edx
	cmpl	$0, %edx
	movq	%rax, -664(%rbp)        ## 8-byte Spill
	je	LBB27_5
## BB#4:
	movq	-664(%rbp), %rax        ## 8-byte Reload
	movq	%rax, -24(%rbp)
	movq	-24(%rbp), %rcx
	movq	%rcx, -16(%rbp)
	movq	-16(%rbp), %rcx
	movq	%rcx, -8(%rbp)
	movq	-8(%rbp), %rcx
	movq	8(%rcx), %rcx
	movq	%rcx, -672(%rbp)        ## 8-byte Spill
	jmp	LBB27_6
LBB27_5:
	movq	-664(%rbp), %rax        ## 8-byte Reload
	movq	%rax, -48(%rbp)
	movq	-48(%rbp), %rcx
	movq	%rcx, -40(%rbp)
	movq	-40(%rbp), %rcx
	movq	%rcx, -32(%rbp)
	movq	-32(%rbp), %rcx
	movzbl	(%rcx), %edx
	sarl	$1, %edx
	movslq	%edx, %rcx
	movq	%rcx, -672(%rbp)        ## 8-byte Spill
LBB27_6:                                ## %_ZNKSt3__112basic_stringIcNS_11char_traitsIcEENS_9allocatorIcEEE4sizeEv.exit2
	movq	-672(%rbp), %rax        ## 8-byte Reload
	movq	%rax, -616(%rbp)
	movq	-592(%rbp), %rax
	movq	%rax, -160(%rbp)
	movq	-160(%rbp), %rax
	movq	%rax, -152(%rbp)
	movq	-152(%rbp), %rcx
	movq	%rcx, -144(%rbp)
	movq	-144(%rbp), %rcx
	movq	%rcx, -136(%rbp)
	movq	-136(%rbp), %rcx
	movzbl	(%rcx), %edx
	andl	$1, %edx
	cmpl	$0, %edx
	movq	%rax, -680(%rbp)        ## 8-byte Spill
	je	LBB27_8
## BB#7:
	movq	-680(%rbp), %rax        ## 8-byte Reload
	movq	%rax, -104(%rbp)
	movq	-104(%rbp), %rcx
	movq	%rcx, -96(%rbp)
	movq	-96(%rbp), %rcx
	movq	%rcx, -88(%rbp)
	movq	-88(%rbp), %rcx
	movq	8(%rcx), %rcx
	movq	%rcx, -688(%rbp)        ## 8-byte Spill
	jmp	LBB27_9
LBB27_8:
	movq	-680(%rbp), %rax        ## 8-byte Reload
	movq	%rax, -128(%rbp)
	movq	-128(%rbp), %rcx
	movq	%rcx, -120(%rbp)
	movq	-120(%rbp), %rcx
	movq	%rcx, -112(%rbp)
	movq	-112(%rbp), %rcx
	movzbl	(%rcx), %edx
	sarl	$1, %edx
	movslq	%edx, %rcx
	movq	%rcx, -688(%rbp)        ## 8-byte Spill
LBB27_9:                                ## %_ZNKSt3__112basic_stringIcNS_11char_traitsIcEENS_9allocatorIcEEE4sizeEv.exit
	movq	-688(%rbp), %rax        ## 8-byte Reload
	movq	%rax, -624(%rbp)
	movq	-584(%rbp), %rax
	movq	%rax, -272(%rbp)
	movq	-272(%rbp), %rax
	movq	%rax, -264(%rbp)
	movq	-264(%rbp), %rax
	movq	%rax, -256(%rbp)
	movq	-256(%rbp), %rcx
	movq	%rcx, -248(%rbp)
	movq	-248(%rbp), %rcx
	movq	%rcx, -240(%rbp)
	movq	-240(%rbp), %rcx
	movzbl	(%rcx), %edx
	andl	$1, %edx
	cmpl	$0, %edx
	movq	%rax, -696(%rbp)        ## 8-byte Spill
	je	LBB27_11
## BB#10:
	movq	-696(%rbp), %rax        ## 8-byte Reload
	movq	%rax, -192(%rbp)
	movq	-192(%rbp), %rcx
	movq	%rcx, -184(%rbp)
	movq	-184(%rbp), %rcx
	movq	%rcx, -176(%rbp)
	movq	-176(%rbp), %rcx
	movq	16(%rcx), %rcx
	movq	%rcx, -704(%rbp)        ## 8-byte Spill
	jmp	LBB27_12
LBB27_11:
	movq	-696(%rbp), %rax        ## 8-byte Reload
	movq	%rax, -232(%rbp)
	movq	-232(%rbp), %rcx
	movq	%rcx, -224(%rbp)
	movq	-224(%rbp), %rcx
	movq	%rcx, -216(%rbp)
	movq	-216(%rbp), %rcx
	addq	$1, %rcx
	movq	%rcx, -208(%rbp)
	movq	-208(%rbp), %rcx
	movq	%rcx, -200(%rbp)
	movq	-200(%rbp), %rcx
	movq	%rcx, -704(%rbp)        ## 8-byte Spill
LBB27_12:                               ## %_ZNKSt3__112basic_stringIcNS_11char_traitsIcEENS_9allocatorIcEEE4dataEv.exit1
	movq	-704(%rbp), %rax        ## 8-byte Reload
	movq	%rax, -168(%rbp)
	movq	-616(%rbp), %rcx
	movq	-624(%rbp), %rdx
	movq	%rcx, %rsi
	addq	%rdx, %rsi
Ltmp382:
	movq	-656(%rbp), %rdi        ## 8-byte Reload
	movq	%rsi, -712(%rbp)        ## 8-byte Spill
	movq	%rax, %rsi
	movq	%rcx, %rdx
	movq	-712(%rbp), %rcx        ## 8-byte Reload
	callq	__ZNSt3__112basic_stringIcNS_11char_traitsIcEENS_9allocatorIcEEE6__initEPKcmm
Ltmp383:
	jmp	LBB27_13
LBB27_13:
	movq	-592(%rbp), %rax
	movq	%rax, -384(%rbp)
	movq	-384(%rbp), %rax
	movq	%rax, -376(%rbp)
	movq	-376(%rbp), %rax
	movq	%rax, -368(%rbp)
	movq	-368(%rbp), %rcx
	movq	%rcx, -360(%rbp)
	movq	-360(%rbp), %rcx
	movq	%rcx, -352(%rbp)
	movq	-352(%rbp), %rcx
	movzbl	(%rcx), %edx
	andl	$1, %edx
	cmpl	$0, %edx
	movq	%rax, -720(%rbp)        ## 8-byte Spill
	je	LBB27_15
## BB#14:
	movq	-720(%rbp), %rax        ## 8-byte Reload
	movq	%rax, -304(%rbp)
	movq	-304(%rbp), %rcx
	movq	%rcx, -296(%rbp)
	movq	-296(%rbp), %rcx
	movq	%rcx, -288(%rbp)
	movq	-288(%rbp), %rcx
	movq	16(%rcx), %rcx
	movq	%rcx, -728(%rbp)        ## 8-byte Spill
	jmp	LBB27_16
LBB27_15:
	movq	-720(%rbp), %rax        ## 8-byte Reload
	movq	%rax, -344(%rbp)
	movq	-344(%rbp), %rcx
	movq	%rcx, -336(%rbp)
	movq	-336(%rbp), %rcx
	movq	%rcx, -328(%rbp)
	movq	-328(%rbp), %rcx
	addq	$1, %rcx
	movq	%rcx, -320(%rbp)
	movq	-320(%rbp), %rcx
	movq	%rcx, -312(%rbp)
	movq	-312(%rbp), %rcx
	movq	%rcx, -728(%rbp)        ## 8-byte Spill
LBB27_16:                               ## %_ZNKSt3__112basic_stringIcNS_11char_traitsIcEENS_9allocatorIcEEE4dataEv.exit
	movq	-728(%rbp), %rax        ## 8-byte Reload
	movq	%rax, -280(%rbp)
	movq	-624(%rbp), %rdx
Ltmp384:
	movq	-656(%rbp), %rdi        ## 8-byte Reload
	movq	%rax, %rsi
	callq	__ZNSt3__112basic_stringIcNS_11char_traitsIcEENS_9allocatorIcEEE6appendEPKcm
Ltmp385:
	movq	%rax, -736(%rbp)        ## 8-byte Spill
	jmp	LBB27_17
LBB27_17:
	movb	$1, -593(%rbp)
	movl	$1, -640(%rbp)
	testb	$1, -593(%rbp)
	jne	LBB27_20
	jmp	LBB27_19
LBB27_18:
Ltmp386:
	movl	%edx, %ecx
	movq	%rax, -632(%rbp)
	movl	%ecx, -636(%rbp)
Ltmp387:
	movq	-656(%rbp), %rdi        ## 8-byte Reload
	callq	__ZNSt3__112basic_stringIcNS_11char_traitsIcEENS_9allocatorIcEEED1Ev
Ltmp388:
	jmp	LBB27_21
LBB27_19:
	movq	-656(%rbp), %rdi        ## 8-byte Reload
	callq	__ZNSt3__112basic_stringIcNS_11char_traitsIcEENS_9allocatorIcEEED1Ev
LBB27_20:
	movq	-648(%rbp), %rax        ## 8-byte Reload
	addq	$752, %rsp              ## imm = 0x2F0
	popq	%rbp
	ret
LBB27_21:
	jmp	LBB27_22
LBB27_22:
	movq	-632(%rbp), %rdi
	callq	__Unwind_Resume
LBB27_23:
Ltmp389:
	movl	%edx, %ecx
	movq	%rax, %rdi
	movl	%ecx, -740(%rbp)        ## 4-byte Spill
	callq	___clang_call_terminate
	.cfi_endproc
Leh_func_end27:
	.section	__TEXT,__gcc_except_tab
	.align	2
GCC_except_table27:
Lexception27:
	.byte	255                     ## @LPStart Encoding = omit
	.byte	155                     ## @TType Encoding = indirect pcrel sdata4
	.asciz	"\257\200"              ## @TType base offset
	.byte	3                       ## Call site Encoding = udata4
	.byte	39                      ## Call site table length
Lset168 = Ltmp382-Leh_func_begin27      ## >> Call Site 1 <<
	.long	Lset168
Lset169 = Ltmp385-Ltmp382               ##   Call between Ltmp382 and Ltmp385
	.long	Lset169
Lset170 = Ltmp386-Leh_func_begin27      ##     jumps to Ltmp386
	.long	Lset170
	.byte	0                       ##   On action: cleanup
Lset171 = Ltmp387-Leh_func_begin27      ## >> Call Site 2 <<
	.long	Lset171
Lset172 = Ltmp388-Ltmp387               ##   Call between Ltmp387 and Ltmp388
	.long	Lset172
Lset173 = Ltmp389-Leh_func_begin27      ##     jumps to Ltmp389
	.long	Lset173
	.byte	1                       ##   On action: 1
Lset174 = Ltmp388-Leh_func_begin27      ## >> Call Site 3 <<
	.long	Lset174
Lset175 = Leh_func_end27-Ltmp388        ##   Call between Ltmp388 and Leh_func_end27
	.long	Lset175
	.long	0                       ##     has no landing pad
	.byte	0                       ##   On action: cleanup
	.byte	1                       ## >> Action Record 1 <<
                                        ##   Catch TypeInfo 1
	.byte	0                       ##   No further actions
                                        ## >> Catch TypeInfos <<
	.long	0                       ## TypeInfo 1
	.align	2

	.section	__TEXT,__textcoal_nt,coalesced,pure_instructions
	.globl	__ZNSt3__1plIcNS_11char_traitsIcEENS_9allocatorIcEEEENS_12basic_stringIT_T0_T1_EERKS9_PKS6_
	.weak_def_can_be_hidden	__ZNSt3__1plIcNS_11char_traitsIcEENS_9allocatorIcEEEENS_12basic_stringIT_T0_T1_EERKS9_PKS6_
	.align	4, 0x90
__ZNSt3__1plIcNS_11char_traitsIcEENS_9allocatorIcEEEENS_12basic_stringIT_T0_T1_EERKS9_PKS6_: ## @_ZNSt3__1plIcNS_11char_traitsIcEENS_9allocatorIcEEEENS_12basic_stringIT_T0_T1_EERKS9_PKS6_
	.cfi_startproc
	.cfi_personality 155, ___gxx_personality_v0
Leh_func_begin28:
	.cfi_lsda 16, Lexception28
## BB#0:
	pushq	%rbp
Ltmp407:
	.cfi_def_cfa_offset 16
Ltmp408:
	.cfi_offset %rbp, -16
	movq	%rsp, %rbp
Ltmp409:
	.cfi_def_cfa_register %rbp
	subq	$544, %rsp              ## imm = 0x220
	movq	%rdi, %rax
	leaq	-264(%rbp), %rcx
	leaq	-288(%rbp), %r8
	leaq	-416(%rbp), %r9
	movq	%rsi, -400(%rbp)
	movq	%rdx, -408(%rbp)
	movb	$0, -409(%rbp)
	movq	-400(%rbp), %rdx
	movq	%rdx, -392(%rbp)
	movq	-392(%rbp), %rdx
	movq	%rdx, -376(%rbp)
	movq	-376(%rbp), %rdx
	movq	%rdx, -368(%rbp)
	movq	-368(%rbp), %rdx
	movq	%rdx, -360(%rbp)
	movq	%rdi, -344(%rbp)
	movq	%r9, -352(%rbp)
	movq	-344(%rbp), %rdx
	movq	-352(%rbp), %rsi
	movq	%rdx, -320(%rbp)
	movq	%rsi, -328(%rbp)
	movq	-320(%rbp), %rdx
	movq	%rdx, -304(%rbp)
	movq	-304(%rbp), %rsi
	movq	%rsi, -280(%rbp)
	movq	-280(%rbp), %rsi
	movq	%r8, -272(%rbp)
	movq	%rsi, -256(%rbp)
	movq	%rcx, -248(%rbp)
	movq	%rdx, -224(%rbp)
	movq	-224(%rbp), %rcx
	movq	%rcx, -216(%rbp)
	movq	-216(%rbp), %rcx
	movq	%rcx, -208(%rbp)
	movq	-208(%rbp), %rcx
	movq	%rcx, -232(%rbp)
	movl	$0, -236(%rbp)
	movq	%rax, -464(%rbp)        ## 8-byte Spill
	movq	%rdi, -472(%rbp)        ## 8-byte Spill
LBB28_1:                                ## =>This Inner Loop Header: Depth=1
	cmpl	$3, -236(%rbp)
	jae	LBB28_3
## BB#2:                                ##   in Loop: Header=BB28_1 Depth=1
	movl	-236(%rbp), %eax
	movl	%eax, %ecx
	movq	-232(%rbp), %rdx
	movq	$0, (%rdx,%rcx,8)
	movl	-236(%rbp), %eax
	addl	$1, %eax
	movl	%eax, -236(%rbp)
	jmp	LBB28_1
LBB28_3:                                ## %_ZNSt3__112basic_stringIcNS_11char_traitsIcEENS_9allocatorIcEEEC1ERKS4_.exit
	movq	-400(%rbp), %rax
	movq	%rax, -80(%rbp)
	movq	-80(%rbp), %rax
	movq	%rax, -72(%rbp)
	movq	-72(%rbp), %rcx
	movq	%rcx, -64(%rbp)
	movq	-64(%rbp), %rcx
	movq	%rcx, -56(%rbp)
	movq	-56(%rbp), %rcx
	movzbl	(%rcx), %edx
	andl	$1, %edx
	cmpl	$0, %edx
	movq	%rax, -480(%rbp)        ## 8-byte Spill
	je	LBB28_5
## BB#4:
	movq	-480(%rbp), %rax        ## 8-byte Reload
	movq	%rax, -24(%rbp)
	movq	-24(%rbp), %rcx
	movq	%rcx, -16(%rbp)
	movq	-16(%rbp), %rcx
	movq	%rcx, -8(%rbp)
	movq	-8(%rbp), %rcx
	movq	8(%rcx), %rcx
	movq	%rcx, -488(%rbp)        ## 8-byte Spill
	jmp	LBB28_6
LBB28_5:
	movq	-480(%rbp), %rax        ## 8-byte Reload
	movq	%rax, -48(%rbp)
	movq	-48(%rbp), %rcx
	movq	%rcx, -40(%rbp)
	movq	-40(%rbp), %rcx
	movq	%rcx, -32(%rbp)
	movq	-32(%rbp), %rcx
	movzbl	(%rcx), %edx
	sarl	$1, %edx
	movslq	%edx, %rcx
	movq	%rcx, -488(%rbp)        ## 8-byte Spill
LBB28_6:                                ## %_ZNKSt3__112basic_stringIcNS_11char_traitsIcEENS_9allocatorIcEEE4sizeEv.exit
	movq	-488(%rbp), %rax        ## 8-byte Reload
	movq	%rax, -432(%rbp)
	movq	-408(%rbp), %rax
	movq	%rax, -88(%rbp)
Ltmp395:
	movq	%rax, %rdi
	callq	_strlen
Ltmp396:
	movq	%rax, -496(%rbp)        ## 8-byte Spill
	jmp	LBB28_7
LBB28_7:                                ## %_ZNSt3__111char_traitsIcE6lengthEPKc.exit
	jmp	LBB28_8
LBB28_8:
	movq	-496(%rbp), %rax        ## 8-byte Reload
	movq	%rax, -440(%rbp)
	movq	-400(%rbp), %rcx
	movq	%rcx, -200(%rbp)
	movq	-200(%rbp), %rcx
	movq	%rcx, -192(%rbp)
	movq	-192(%rbp), %rcx
	movq	%rcx, -184(%rbp)
	movq	-184(%rbp), %rdx
	movq	%rdx, -176(%rbp)
	movq	-176(%rbp), %rdx
	movq	%rdx, -168(%rbp)
	movq	-168(%rbp), %rdx
	movzbl	(%rdx), %esi
	andl	$1, %esi
	cmpl	$0, %esi
	movq	%rcx, -504(%rbp)        ## 8-byte Spill
	je	LBB28_10
## BB#9:
	movq	-504(%rbp), %rax        ## 8-byte Reload
	movq	%rax, -120(%rbp)
	movq	-120(%rbp), %rcx
	movq	%rcx, -112(%rbp)
	movq	-112(%rbp), %rcx
	movq	%rcx, -104(%rbp)
	movq	-104(%rbp), %rcx
	movq	16(%rcx), %rcx
	movq	%rcx, -512(%rbp)        ## 8-byte Spill
	jmp	LBB28_11
LBB28_10:
	movq	-504(%rbp), %rax        ## 8-byte Reload
	movq	%rax, -160(%rbp)
	movq	-160(%rbp), %rcx
	movq	%rcx, -152(%rbp)
	movq	-152(%rbp), %rcx
	movq	%rcx, -144(%rbp)
	movq	-144(%rbp), %rcx
	addq	$1, %rcx
	movq	%rcx, -136(%rbp)
	movq	-136(%rbp), %rcx
	movq	%rcx, -128(%rbp)
	movq	-128(%rbp), %rcx
	movq	%rcx, -512(%rbp)        ## 8-byte Spill
LBB28_11:                               ## %_ZNKSt3__112basic_stringIcNS_11char_traitsIcEENS_9allocatorIcEEE4dataEv.exit
	movq	-512(%rbp), %rax        ## 8-byte Reload
	movq	%rax, -96(%rbp)
	movq	-432(%rbp), %rcx
	movq	-440(%rbp), %rdx
	movq	%rcx, %rsi
	addq	%rdx, %rsi
Ltmp397:
	movq	-472(%rbp), %rdi        ## 8-byte Reload
	movq	%rsi, -520(%rbp)        ## 8-byte Spill
	movq	%rax, %rsi
	movq	%rcx, %rdx
	movq	-520(%rbp), %rcx        ## 8-byte Reload
	callq	__ZNSt3__112basic_stringIcNS_11char_traitsIcEENS_9allocatorIcEEE6__initEPKcmm
Ltmp398:
	jmp	LBB28_12
LBB28_12:
	movq	-408(%rbp), %rsi
	movq	-440(%rbp), %rdx
Ltmp399:
	movq	-472(%rbp), %rdi        ## 8-byte Reload
	callq	__ZNSt3__112basic_stringIcNS_11char_traitsIcEENS_9allocatorIcEEE6appendEPKcm
Ltmp400:
	movq	%rax, -528(%rbp)        ## 8-byte Spill
	jmp	LBB28_13
LBB28_13:
	movb	$1, -409(%rbp)
	movl	$1, -456(%rbp)
	testb	$1, -409(%rbp)
	jne	LBB28_16
	jmp	LBB28_15
LBB28_14:
Ltmp401:
	movl	%edx, %ecx
	movq	%rax, -448(%rbp)
	movl	%ecx, -452(%rbp)
Ltmp402:
	movq	-472(%rbp), %rdi        ## 8-byte Reload
	callq	__ZNSt3__112basic_stringIcNS_11char_traitsIcEENS_9allocatorIcEEED1Ev
Ltmp403:
	jmp	LBB28_17
LBB28_15:
	movq	-472(%rbp), %rdi        ## 8-byte Reload
	callq	__ZNSt3__112basic_stringIcNS_11char_traitsIcEENS_9allocatorIcEEED1Ev
LBB28_16:
	movq	-464(%rbp), %rax        ## 8-byte Reload
	addq	$544, %rsp              ## imm = 0x220
	popq	%rbp
	ret
LBB28_17:
	jmp	LBB28_18
LBB28_18:
	movq	-448(%rbp), %rdi
	callq	__Unwind_Resume
LBB28_19:
Ltmp404:
	movl	%edx, %ecx
	movq	%rax, %rdi
	movl	%ecx, -532(%rbp)        ## 4-byte Spill
	callq	___clang_call_terminate
	.cfi_endproc
Leh_func_end28:
	.section	__TEXT,__gcc_except_tab
	.align	2
GCC_except_table28:
Lexception28:
	.byte	255                     ## @LPStart Encoding = omit
	.byte	155                     ## @TType Encoding = indirect pcrel sdata4
	.asciz	"\257\200"              ## @TType base offset
	.byte	3                       ## Call site Encoding = udata4
	.byte	39                      ## Call site table length
Lset176 = Ltmp395-Leh_func_begin28      ## >> Call Site 1 <<
	.long	Lset176
Lset177 = Ltmp400-Ltmp395               ##   Call between Ltmp395 and Ltmp400
	.long	Lset177
Lset178 = Ltmp401-Leh_func_begin28      ##     jumps to Ltmp401
	.long	Lset178
	.byte	0                       ##   On action: cleanup
Lset179 = Ltmp402-Leh_func_begin28      ## >> Call Site 2 <<
	.long	Lset179
Lset180 = Ltmp403-Ltmp402               ##   Call between Ltmp402 and Ltmp403
	.long	Lset180
Lset181 = Ltmp404-Leh_func_begin28      ##     jumps to Ltmp404
	.long	Lset181
	.byte	1                       ##   On action: 1
Lset182 = Ltmp403-Leh_func_begin28      ## >> Call Site 3 <<
	.long	Lset182
Lset183 = Leh_func_end28-Ltmp403        ##   Call between Ltmp403 and Leh_func_end28
	.long	Lset183
	.long	0                       ##     has no landing pad
	.byte	0                       ##   On action: cleanup
	.byte	1                       ## >> Action Record 1 <<
                                        ##   Catch TypeInfo 1
	.byte	0                       ##   No further actions
                                        ## >> Catch TypeInfos <<
	.long	0                       ## TypeInfo 1
	.align	2

	.section	__TEXT,__text,regular,pure_instructions
	.globl	__ZN3PIDC1Ev
	.align	4, 0x90
__ZN3PIDC1Ev:                           ## @_ZN3PIDC1Ev
	.cfi_startproc
## BB#0:
	pushq	%rbp
Ltmp412:
	.cfi_def_cfa_offset 16
Ltmp413:
	.cfi_offset %rbp, -16
	movq	%rsp, %rbp
Ltmp414:
	.cfi_def_cfa_register %rbp
	subq	$16, %rsp
	movq	%rdi, -8(%rbp)
	movq	-8(%rbp), %rdi
	callq	__ZN3PIDC2Ev
	addq	$16, %rsp
	popq	%rbp
	ret
	.cfi_endproc

	.section	__TEXT,__literal4,4byte_literals
	.align	2
LCPI30_0:
	.long	3184315597              ## float -0.100000001
LCPI30_1:
	.long	1058642330              ## float 0.600000024
LCPI30_2:
	.long	1055286886              ## float 0.449999988
	.section	__TEXT,__text,regular,pure_instructions
	.globl	__ZN3PIDC2Ev
	.align	4, 0x90
__ZN3PIDC2Ev:                           ## @_ZN3PIDC2Ev
	.cfi_startproc
## BB#0:
	pushq	%rbp
Ltmp417:
	.cfi_def_cfa_offset 16
Ltmp418:
	.cfi_offset %rbp, -16
	movq	%rsp, %rbp
Ltmp419:
	.cfi_def_cfa_register %rbp
	xorps	%xmm0, %xmm0
	movss	LCPI30_0(%rip), %xmm1
	movabsq	$2, %rax
	cvtsi2ssq	%rax, %xmm2
	movabsq	$480, %rax              ## imm = 0x1E0
	cvtsi2ssq	%rax, %xmm3
	movss	LCPI30_1(%rip), %xmm4
	movss	LCPI30_2(%rip), %xmm5
	movq	%rdi, -8(%rbp)
	movq	-8(%rbp), %rax
	movss	%xmm5, (%rax)
	movss	%xmm4, 4(%rax)
	movss	%xmm3, 8(%rax)
	movss	(%rax), %xmm3
	divss	8(%rax), %xmm3
	movss	%xmm3, 12(%rax)
	movss	%xmm0, 24(%rax)
	movss	%xmm0, 28(%rax)
	movss	(%rax), %xmm3
	divss	%xmm2, %xmm3
	movss	%xmm3, 32(%rax)
	movss	%xmm0, 36(%rax)
	movss	%xmm0, 40(%rax)
	movss	4(%rax), %xmm3
	divss	%xmm2, %xmm3
	movss	%xmm3, 44(%rax)
	movss	%xmm0, 52(%rax)
	movss	%xmm0, 56(%rax)
	movss	%xmm0, 60(%rax)
	movss	%xmm0, 64(%rax)
	movss	%xmm1, 68(%rax)
	movss	%xmm0, 72(%rax)
	movss	%xmm1, 76(%rax)
	movss	%xmm0, 80(%rax)
	movss	%xmm0, 84(%rax)
	popq	%rbp
	ret
	.cfi_endproc

	.globl	__ZN3PID20CoOrdinateToDistanceEii
	.align	4, 0x90
__ZN3PID20CoOrdinateToDistanceEii:      ## @_ZN3PID20CoOrdinateToDistanceEii
	.cfi_startproc
## BB#0:
	pushq	%rbp
Ltmp422:
	.cfi_def_cfa_offset 16
Ltmp423:
	.cfi_offset %rbp, -16
	movq	%rsp, %rbp
Ltmp424:
	.cfi_def_cfa_register %rbp
	movq	%rdi, -8(%rbp)
	movl	%esi, -12(%rbp)
	movl	%edx, -16(%rbp)
	movq	-8(%rbp), %rdi
	cvtsi2ssl	-12(%rbp), %xmm0
	mulss	12(%rdi), %xmm0
	movss	%xmm0, 16(%rdi)
	cvtsi2ssl	-16(%rbp), %xmm0
	mulss	12(%rdi), %xmm0
	movss	%xmm0, 20(%rdi)
	popq	%rbp
	ret
	.cfi_endproc

	.globl	__ZN3PID9XYToErrorEv
	.align	4, 0x90
__ZN3PID9XYToErrorEv:                   ## @_ZN3PID9XYToErrorEv
	.cfi_startproc
## BB#0:
	pushq	%rbp
Ltmp427:
	.cfi_def_cfa_offset 16
Ltmp428:
	.cfi_offset %rbp, -16
	movq	%rsp, %rbp
Ltmp429:
	.cfi_def_cfa_register %rbp
	movq	%rdi, -8(%rbp)
	movq	-8(%rbp), %rdi
	movss	32(%rdi), %xmm0
	subss	20(%rdi), %xmm0
	movss	%xmm0, 24(%rdi)
	movss	56(%rdi), %xmm0
	movss	24(%rdi), %xmm1
	mulss	48(%rdi), %xmm1
	addss	%xmm1, %xmm0
	movss	%xmm0, 56(%rdi)
	movss	24(%rdi), %xmm0
	subss	28(%rdi), %xmm0
	divss	48(%rdi), %xmm0
	movss	%xmm0, 52(%rdi)
	movss	24(%rdi), %xmm0
	movss	%xmm0, 28(%rdi)
	movss	24(%rdi), %xmm0
	mulss	68(%rdi), %xmm0
	movss	56(%rdi), %xmm1
	mulss	72(%rdi), %xmm1
	addss	%xmm1, %xmm0
	movss	52(%rdi), %xmm1
	mulss	76(%rdi), %xmm1
	addss	%xmm1, %xmm0
	movss	%xmm0, 24(%rdi)
	movss	44(%rdi), %xmm0
	subss	16(%rdi), %xmm0
	movss	%xmm0, 36(%rdi)
	movss	64(%rdi), %xmm0
	movss	36(%rdi), %xmm1
	mulss	48(%rdi), %xmm1
	addss	%xmm1, %xmm0
	movss	%xmm0, 64(%rdi)
	movss	36(%rdi), %xmm0
	subss	40(%rdi), %xmm0
	divss	48(%rdi), %xmm0
	movss	%xmm0, 60(%rdi)
	movss	36(%rdi), %xmm0
	movss	%xmm0, 40(%rdi)
	movss	36(%rdi), %xmm0
	mulss	68(%rdi), %xmm0
	movss	64(%rdi), %xmm1
	mulss	72(%rdi), %xmm1
	addss	%xmm1, %xmm0
	movss	60(%rdi), %xmm1
	mulss	76(%rdi), %xmm1
	addss	%xmm1, %xmm0
	movss	%xmm0, 36(%rdi)
	popq	%rbp
	ret
	.cfi_endproc

	.globl	__ZN3PID11ErrorToTiltEv
	.align	4, 0x90
__ZN3PID11ErrorToTiltEv:                ## @_ZN3PID11ErrorToTiltEv
	.cfi_startproc
## BB#0:
	pushq	%rbp
Ltmp432:
	.cfi_def_cfa_offset 16
Ltmp433:
	.cfi_offset %rbp, -16
	movq	%rsp, %rbp
Ltmp434:
	.cfi_def_cfa_register %rbp
	movq	%rdi, -8(%rbp)
	movq	-8(%rbp), %rdi
	movss	36(%rdi), %xmm0
	movss	%xmm0, 84(%rdi)
	movss	24(%rdi), %xmm0
	movss	%xmm0, 80(%rdi)
	popq	%rbp
	ret
	.cfi_endproc

	.globl	__ZN5StoreC1Ev
	.align	4, 0x90
__ZN5StoreC1Ev:                         ## @_ZN5StoreC1Ev
	.cfi_startproc
## BB#0:
	pushq	%rbp
Ltmp437:
	.cfi_def_cfa_offset 16
Ltmp438:
	.cfi_offset %rbp, -16
	movq	%rsp, %rbp
Ltmp439:
	.cfi_def_cfa_register %rbp
	subq	$16, %rsp
	movq	%rdi, -8(%rbp)
	movq	-8(%rbp), %rdi
	callq	__ZN5StoreC2Ev
	addq	$16, %rsp
	popq	%rbp
	ret
	.cfi_endproc

	.globl	__ZN5StoreC2Ev
	.align	4, 0x90
__ZN5StoreC2Ev:                         ## @_ZN5StoreC2Ev
	.cfi_startproc
## BB#0:
	pushq	%rbp
Ltmp442:
	.cfi_def_cfa_offset 16
Ltmp443:
	.cfi_offset %rbp, -16
	movq	%rsp, %rbp
Ltmp444:
	.cfi_def_cfa_register %rbp
	movq	%rdi, -8(%rbp)
	popq	%rbp
	ret
	.cfi_endproc

	.globl	__ZN5Store11intToStringEiiiiii
	.align	4, 0x90
__ZN5Store11intToStringEiiiiii:         ## @_ZN5Store11intToStringEiiiiii
	.cfi_startproc
	.cfi_personality 155, ___gxx_personality_v0
Leh_func_begin36:
	.cfi_lsda 16, Lexception36
## BB#0:
	pushq	%rbp
Ltmp511:
	.cfi_def_cfa_offset 16
Ltmp512:
	.cfi_offset %rbp, -16
	movq	%rsp, %rbp
Ltmp513:
	.cfi_def_cfa_register %rbp
	pushq	%r15
	pushq	%r14
	pushq	%r13
	pushq	%r12
	pushq	%rbx
	subq	$1000, %rsp             ## imm = 0x3E8
Ltmp514:
	.cfi_offset %rbx, -56
Ltmp515:
	.cfi_offset %r12, -48
Ltmp516:
	.cfi_offset %r13, -40
Ltmp517:
	.cfi_offset %r14, -32
Ltmp518:
	.cfi_offset %r15, -24
	movq	%rdi, %rax
	movl	24(%rbp), %r10d
	movl	16(%rbp), %r11d
	movq	%rsi, -472(%rbp)
	movl	%edx, -476(%rbp)
	movl	%ecx, -480(%rbp)
	movl	%r8d, -484(%rbp)
	movl	%r9d, -488(%rbp)
	movl	%r11d, -492(%rbp)
	movl	%r10d, -496(%rbp)
	leaq	-776(%rbp), %rsi
	movq	%rsi, -440(%rbp)
	movl	$24, -444(%rbp)
	movq	-440(%rbp), %rsi
	movq	%rsi, %rbx
	subq	$-128, %rbx
	movq	%rbx, -432(%rbp)
	movq	%rbx, -424(%rbp)
	movq	__ZTVNSt3__18ios_baseE@GOTPCREL(%rip), %rbx
	addq	$16, %rbx
	movq	%rbx, 128(%rsi)
	movq	__ZTVNSt3__19basic_iosIcNS_11char_traitsIcEEEE@GOTPCREL(%rip), %rbx
	addq	$16, %rbx
	movq	%rbx, 128(%rsi)
	movq	__ZTVNSt3__118basic_stringstreamIcNS_11char_traitsIcEENS_9allocatorIcEEEE@GOTPCREL(%rip), %rbx
	movq	%rbx, %r14
	addq	$24, %r14
	movq	%r14, (%rsi)
	movq	%rbx, %r14
	addq	$104, %r14
	movq	%r14, 128(%rsi)
	addq	$64, %rbx
	movq	%rbx, 16(%rsi)
	movq	%rsi, %rbx
	addq	$24, %rbx
	movq	%rsi, -384(%rbp)
	movq	__ZTTNSt3__118basic_stringstreamIcNS_11char_traitsIcEENS_9allocatorIcEEEE@GOTPCREL(%rip), %r14
	addq	$8, %r14
	movq	%r14, -392(%rbp)
	movq	%rbx, -400(%rbp)
	movq	-384(%rbp), %r14
	movq	-392(%rbp), %r15
	movq	%r15, %r12
	addq	$8, %r12
	movq	%r14, -360(%rbp)
	movq	%r12, -368(%rbp)
	movq	%rbx, -376(%rbp)
	movq	-360(%rbp), %rbx
	movq	-368(%rbp), %r12
	movq	(%r12), %r13
	movq	%r13, (%rbx)
	movq	8(%r12), %r12
	movq	-24(%r13), %r13
	movq	%r12, (%rbx,%r13)
	movq	$0, 8(%rbx)
	movq	(%rbx), %r12
	movq	-24(%r12), %r12
	addq	%r12, %rbx
	movq	-376(%rbp), %r12
	movq	%rbx, -344(%rbp)
	movq	%r12, -352(%rbp)
	movq	-344(%rbp), %rbx
Ltmp445:
	movq	%rdi, -832(%rbp)        ## 8-byte Spill
	movq	%rbx, %rdi
	movq	%rsi, -840(%rbp)        ## 8-byte Spill
	movq	%r12, %rsi
	movq	%rax, -848(%rbp)        ## 8-byte Spill
	movq	%rbx, -856(%rbp)        ## 8-byte Spill
	movq	%r14, -864(%rbp)        ## 8-byte Spill
	movq	%r15, -872(%rbp)        ## 8-byte Spill
	callq	__ZNSt3__18ios_base4initEPv
Ltmp446:
	jmp	LBB36_1
LBB36_1:                                ## %_ZNSt3__114basic_iostreamIcNS_11char_traitsIcEEEC2EPNS_15basic_streambufIcS2_EE.exit.i
	movq	-856(%rbp), %rax        ## 8-byte Reload
	movq	$0, 136(%rax)
	movl	$-1, 144(%rax)
	movq	-864(%rbp), %rcx        ## 8-byte Reload
	addq	$16, %rcx
	movq	-872(%rbp), %rdx        ## 8-byte Reload
	addq	$24, %rdx
	movq	%rcx, -328(%rbp)
	movq	%rdx, -336(%rbp)
	movq	-328(%rbp), %rcx
	movq	-872(%rbp), %rdx        ## 8-byte Reload
	movq	24(%rdx), %rsi
	movq	%rsi, (%rcx)
	movq	32(%rdx), %rdi
	movq	-24(%rsi), %rsi
	movq	%rdi, (%rcx,%rsi)
	movq	(%rdx), %rcx
	movq	-864(%rbp), %rsi        ## 8-byte Reload
	movq	%rcx, (%rsi)
	movq	40(%rdx), %rdi
	movq	-24(%rcx), %rcx
	movq	%rdi, (%rsi,%rcx)
	movq	48(%rdx), %rcx
	movq	%rcx, 16(%rsi)
	movq	__ZTVNSt3__118basic_stringstreamIcNS_11char_traitsIcEENS_9allocatorIcEEEE@GOTPCREL(%rip), %rcx
	movq	%rcx, %rdi
	addq	$24, %rdi
	movq	-840(%rbp), %r8         ## 8-byte Reload
	movq	%rdi, (%r8)
	movq	%rcx, %rdi
	addq	$104, %rdi
	movq	%rdi, 128(%r8)
	addq	$64, %rcx
	movq	%rcx, 16(%r8)
	addq	$24, %r8
	movl	-444(%rbp), %r9d
	movq	%r8, -312(%rbp)
	movl	%r9d, -316(%rbp)
	movq	-312(%rbp), %rcx
	movq	%rcx, -256(%rbp)
	movl	%r9d, -260(%rbp)
	movq	-256(%rbp), %rcx
Ltmp448:
	movq	%rcx, %rdi
	movq	%rcx, -880(%rbp)        ## 8-byte Spill
	callq	__ZNSt3__115basic_streambufIcNS_11char_traitsIcEEEC2Ev
Ltmp449:
	jmp	LBB36_2
LBB36_2:                                ## %.noexc.i
	movq	__ZTVNSt3__115basic_stringbufIcNS_11char_traitsIcEENS_9allocatorIcEEEE@GOTPCREL(%rip), %rax
	addq	$16, %rax
	movq	-880(%rbp), %rcx        ## 8-byte Reload
	movq	%rax, (%rcx)
	addq	$64, %rcx
	movq	%rcx, -248(%rbp)
	movq	-248(%rbp), %rax
	movq	%rax, -240(%rbp)
	movq	-240(%rbp), %rax
	movq	%rax, -232(%rbp)
	movq	-232(%rbp), %rdx
	movq	%rdx, -224(%rbp)
	movq	-224(%rbp), %rdx
	movq	%rdx, -216(%rbp)
	movq	-216(%rbp), %rdx
	movq	%rdx, -208(%rbp)
	movq	%rax, -184(%rbp)
	movq	-184(%rbp), %rax
	movq	%rax, -176(%rbp)
	movq	-176(%rbp), %rax
	movq	%rax, -168(%rbp)
	movq	-168(%rbp), %rax
	movq	%rax, -192(%rbp)
	movl	$0, -196(%rbp)
	movq	%rcx, -888(%rbp)        ## 8-byte Spill
LBB36_3:                                ## =>This Inner Loop Header: Depth=1
	cmpl	$3, -196(%rbp)
	jae	LBB36_5
## BB#4:                                ##   in Loop: Header=BB36_3 Depth=1
	movl	-196(%rbp), %eax
	movl	%eax, %ecx
	movq	-192(%rbp), %rdx
	movq	$0, (%rdx,%rcx,8)
	movl	-196(%rbp), %eax
	addl	$1, %eax
	movl	%eax, -196(%rbp)
	jmp	LBB36_3
LBB36_5:                                ## %_ZNSt3__112basic_stringIcNS_11char_traitsIcEENS_9allocatorIcEEEC1Ev.exit.i.i.i
	leaq	-304(%rbp), %rax
	movq	-880(%rbp), %rcx        ## 8-byte Reload
	movq	$0, 88(%rcx)
	movl	-260(%rbp), %edx
	movl	%edx, 96(%rcx)
	movq	%rax, -160(%rbp)
	movq	-160(%rbp), %rax
	movq	%rax, -152(%rbp)
	movq	-152(%rbp), %rax
	movq	%rax, -144(%rbp)
	movq	-144(%rbp), %rsi
	movq	%rsi, -136(%rbp)
	movq	-136(%rbp), %rsi
	movq	%rsi, -128(%rbp)
	movq	-128(%rbp), %rsi
	movq	%rsi, -120(%rbp)
	movq	%rax, -96(%rbp)
	movq	-96(%rbp), %rax
	movq	%rax, -88(%rbp)
	movq	-88(%rbp), %rax
	movq	%rax, -80(%rbp)
	movq	-80(%rbp), %rax
	movq	%rax, -104(%rbp)
	movl	$0, -108(%rbp)
LBB36_6:                                ## =>This Inner Loop Header: Depth=1
	cmpl	$3, -108(%rbp)
	jae	LBB36_8
## BB#7:                                ##   in Loop: Header=BB36_6 Depth=1
	movl	-108(%rbp), %eax
	movl	%eax, %ecx
	movq	-104(%rbp), %rdx
	movq	$0, (%rdx,%rcx,8)
	movl	-108(%rbp), %eax
	addl	$1, %eax
	movl	%eax, -108(%rbp)
	jmp	LBB36_6
LBB36_8:                                ## %_ZNSt3__112basic_stringIcNS_11char_traitsIcEENS_9allocatorIcEEEC1Ev.exit3.i.i.i
Ltmp451:
	leaq	-304(%rbp), %rsi
	movq	-880(%rbp), %rdi        ## 8-byte Reload
	callq	__ZNSt3__115basic_stringbufIcNS_11char_traitsIcEENS_9allocatorIcEEE3strERKNS_12basic_stringIcS2_S4_EE
Ltmp452:
	jmp	LBB36_9
LBB36_9:
Ltmp456:
	leaq	-304(%rbp), %rdi
	callq	__ZNSt3__112basic_stringIcNS_11char_traitsIcEENS_9allocatorIcEEED1Ev
Ltmp457:
	jmp	LBB36_24
LBB36_10:
Ltmp458:
	movl	%edx, %ecx
	movq	%rax, -272(%rbp)
	movl	%ecx, -276(%rbp)
	jmp	LBB36_13
LBB36_11:
Ltmp453:
	movl	%edx, %ecx
	movq	%rax, -272(%rbp)
	movl	%ecx, -276(%rbp)
Ltmp454:
	leaq	-304(%rbp), %rdi
	callq	__ZNSt3__112basic_stringIcNS_11char_traitsIcEENS_9allocatorIcEEED1Ev
Ltmp455:
	jmp	LBB36_12
LBB36_12:
	jmp	LBB36_13
LBB36_13:
Ltmp459:
	movq	-888(%rbp), %rdi        ## 8-byte Reload
	callq	__ZNSt3__112basic_stringIcNS_11char_traitsIcEENS_9allocatorIcEEED1Ev
Ltmp460:
	jmp	LBB36_14
LBB36_14:
Ltmp461:
	movq	-880(%rbp), %rdi        ## 8-byte Reload
	callq	__ZNSt3__115basic_streambufIcNS_11char_traitsIcEEED2Ev
Ltmp462:
	jmp	LBB36_15
LBB36_15:
	movq	-272(%rbp), %rax
	movl	-276(%rbp), %ecx
	movq	%rax, -896(%rbp)        ## 8-byte Spill
	movl	%ecx, -900(%rbp)        ## 4-byte Spill
	jmp	LBB36_19
LBB36_16:
Ltmp463:
	movl	%edx, %ecx
	movq	%rax, %rdi
	movl	%ecx, -904(%rbp)        ## 4-byte Spill
	callq	___clang_call_terminate
LBB36_17:
Ltmp447:
	movl	%edx, %ecx
	movq	%rax, -456(%rbp)
	movl	%ecx, -460(%rbp)
	jmp	LBB36_21
LBB36_18:
Ltmp450:
	movl	%edx, %ecx
	movq	%rax, -896(%rbp)        ## 8-byte Spill
	movl	%ecx, -900(%rbp)        ## 4-byte Spill
LBB36_19:                               ## %.body.i
	movl	-900(%rbp), %eax        ## 4-byte Reload
	movq	-896(%rbp), %rcx        ## 8-byte Reload
	movq	%rcx, -456(%rbp)
	movl	%eax, -460(%rbp)
Ltmp464:
	movq	__ZTTNSt3__118basic_stringstreamIcNS_11char_traitsIcEENS_9allocatorIcEEEE@GOTPCREL(%rip), %rcx
	addq	$8, %rcx
	movq	-840(%rbp), %rdi        ## 8-byte Reload
	movq	%rcx, %rsi
	callq	__ZNSt3__114basic_iostreamIcNS_11char_traitsIcEEED2Ev
Ltmp465:
	jmp	LBB36_20
LBB36_20:
	jmp	LBB36_21
LBB36_21:
	movq	-840(%rbp), %rax        ## 8-byte Reload
	subq	$-128, %rax
Ltmp466:
	movq	%rax, %rdi
	callq	__ZNSt3__19basic_iosIcNS_11char_traitsIcEEED2Ev
Ltmp467:
	jmp	LBB36_22
LBB36_22:
	movq	-456(%rbp), %rax
	movq	%rax, -912(%rbp)        ## 8-byte Spill
	jmp	LBB36_51
LBB36_23:
Ltmp468:
	movl	%edx, %ecx
	movq	%rax, %rdi
	movl	%ecx, -916(%rbp)        ## 4-byte Spill
	callq	___clang_call_terminate
LBB36_24:                               ## %_ZNSt3__118basic_stringstreamIcNS_11char_traitsIcEENS_9allocatorIcEEEC1Ej.exit
	leaq	-760(%rbp), %rdi
	movl	-476(%rbp), %esi
Ltmp469:
	callq	__ZNSt3__113basic_ostreamIcNS_11char_traitsIcEEElsEi
Ltmp470:
	movq	%rax, -928(%rbp)        ## 8-byte Spill
	jmp	LBB36_25
LBB36_25:
Ltmp471:
	leaq	L_.str4(%rip), %rsi
	movq	-928(%rbp), %rdi        ## 8-byte Reload
	callq	__ZNSt3__1lsINS_11char_traitsIcEEEERNS_13basic_ostreamIcT_EES6_PKc
Ltmp472:
	movq	%rax, -936(%rbp)        ## 8-byte Spill
	jmp	LBB36_26
LBB36_26:
	movl	-480(%rbp), %esi
Ltmp473:
	movq	-936(%rbp), %rdi        ## 8-byte Reload
	callq	__ZNSt3__113basic_ostreamIcNS_11char_traitsIcEEElsEi
Ltmp474:
	movq	%rax, -944(%rbp)        ## 8-byte Spill
	jmp	LBB36_27
LBB36_27:
Ltmp475:
	leaq	L_.str4(%rip), %rsi
	movq	-944(%rbp), %rdi        ## 8-byte Reload
	callq	__ZNSt3__1lsINS_11char_traitsIcEEEERNS_13basic_ostreamIcT_EES6_PKc
Ltmp476:
	movq	%rax, -952(%rbp)        ## 8-byte Spill
	jmp	LBB36_28
LBB36_28:
	movl	-484(%rbp), %esi
Ltmp477:
	movq	-952(%rbp), %rdi        ## 8-byte Reload
	callq	__ZNSt3__113basic_ostreamIcNS_11char_traitsIcEEElsEi
Ltmp478:
	movq	%rax, -960(%rbp)        ## 8-byte Spill
	jmp	LBB36_29
LBB36_29:
Ltmp479:
	leaq	L_.str4(%rip), %rsi
	movq	-960(%rbp), %rdi        ## 8-byte Reload
	callq	__ZNSt3__1lsINS_11char_traitsIcEEEERNS_13basic_ostreamIcT_EES6_PKc
Ltmp480:
	movq	%rax, -968(%rbp)        ## 8-byte Spill
	jmp	LBB36_30
LBB36_30:
	movl	-488(%rbp), %esi
Ltmp481:
	movq	-968(%rbp), %rdi        ## 8-byte Reload
	callq	__ZNSt3__113basic_ostreamIcNS_11char_traitsIcEEElsEi
Ltmp482:
	movq	%rax, -976(%rbp)        ## 8-byte Spill
	jmp	LBB36_31
LBB36_31:
Ltmp483:
	leaq	L_.str4(%rip), %rsi
	movq	-976(%rbp), %rdi        ## 8-byte Reload
	callq	__ZNSt3__1lsINS_11char_traitsIcEEEERNS_13basic_ostreamIcT_EES6_PKc
Ltmp484:
	movq	%rax, -984(%rbp)        ## 8-byte Spill
	jmp	LBB36_32
LBB36_32:
	movl	-492(%rbp), %esi
Ltmp485:
	movq	-984(%rbp), %rdi        ## 8-byte Reload
	callq	__ZNSt3__113basic_ostreamIcNS_11char_traitsIcEEElsEi
Ltmp486:
	movq	%rax, -992(%rbp)        ## 8-byte Spill
	jmp	LBB36_33
LBB36_33:
Ltmp487:
	leaq	L_.str4(%rip), %rsi
	movq	-992(%rbp), %rdi        ## 8-byte Reload
	callq	__ZNSt3__1lsINS_11char_traitsIcEEEERNS_13basic_ostreamIcT_EES6_PKc
Ltmp488:
	movq	%rax, -1000(%rbp)       ## 8-byte Spill
	jmp	LBB36_34
LBB36_34:
	movl	-496(%rbp), %esi
Ltmp489:
	movq	-1000(%rbp), %rdi       ## 8-byte Reload
	callq	__ZNSt3__113basic_ostreamIcNS_11char_traitsIcEEElsEi
Ltmp490:
	movq	%rax, -1008(%rbp)       ## 8-byte Spill
	jmp	LBB36_35
LBB36_35:
	leaq	-776(%rbp), %rax
	movq	%rax, -72(%rbp)
	leaq	-752(%rbp), %rsi
Ltmp491:
	leaq	-816(%rbp), %rdi
	callq	__ZNKSt3__115basic_stringbufIcNS_11char_traitsIcEENS_9allocatorIcEEE3strEv
Ltmp492:
	jmp	LBB36_36
LBB36_36:                               ## %_ZNKSt3__118basic_stringstreamIcNS_11char_traitsIcEENS_9allocatorIcEEE3strEv.exit
	jmp	LBB36_37
LBB36_37:
Ltmp493:
	movq	__ZNSt3__14coutE@GOTPCREL(%rip), %rdi
	leaq	-816(%rbp), %rsi
	callq	__ZNSt3__1lsIcNS_11char_traitsIcEENS_9allocatorIcEEEERNS_13basic_ostreamIT_T0_EES9_RKNS_12basic_stringIS6_S7_T1_EE
Ltmp494:
	movq	%rax, -1016(%rbp)       ## 8-byte Spill
	jmp	LBB36_38
LBB36_38:
	movq	-1016(%rbp), %rax       ## 8-byte Reload
	movq	%rax, -56(%rbp)
	leaq	__ZNSt3__14endlIcNS_11char_traitsIcEEEERNS_13basic_ostreamIT_T0_EES7_(%rip), %rcx
	movq	%rcx, -64(%rbp)
	movq	-56(%rbp), %rdi
Ltmp495:
	callq	*%rcx
Ltmp496:
	movq	%rax, -1024(%rbp)       ## 8-byte Spill
	jmp	LBB36_39
LBB36_39:                               ## %_ZNSt3__113basic_ostreamIcNS_11char_traitsIcEEElsEPFRS3_S4_E.exit
	jmp	LBB36_40
LBB36_40:
Ltmp500:
	leaq	-816(%rbp), %rdi
	callq	__ZNSt3__112basic_stringIcNS_11char_traitsIcEENS_9allocatorIcEEED1Ev
Ltmp501:
	jmp	LBB36_41
LBB36_41:
	leaq	-776(%rbp), %rax
	movq	%rax, -48(%rbp)
	leaq	-752(%rbp), %rsi
Ltmp502:
	movq	-832(%rbp), %rdi        ## 8-byte Reload
	callq	__ZNKSt3__115basic_stringbufIcNS_11char_traitsIcEENS_9allocatorIcEEE3strEv
Ltmp503:
	jmp	LBB36_42
LBB36_42:                               ## %_ZNKSt3__118basic_stringstreamIcNS_11char_traitsIcEENS_9allocatorIcEEE3strEv.exit1
	jmp	LBB36_43
LBB36_43:
	leaq	-776(%rbp), %rdi
	movl	$1, -820(%rbp)
	callq	__ZNSt3__118basic_stringstreamIcNS_11char_traitsIcEENS_9allocatorIcEEED1Ev
	movq	-848(%rbp), %rax        ## 8-byte Reload
	addq	$1000, %rsp             ## imm = 0x3E8
	popq	%rbx
	popq	%r12
	popq	%r13
	popq	%r14
	popq	%r15
	popq	%rbp
	ret
LBB36_44:
Ltmp504:
	movl	%edx, %ecx
	movq	%rax, -784(%rbp)
	movl	%ecx, -788(%rbp)
	jmp	LBB36_47
LBB36_45:
Ltmp497:
	movl	%edx, %ecx
	movq	%rax, -784(%rbp)
	movl	%ecx, -788(%rbp)
Ltmp498:
	leaq	-816(%rbp), %rdi
	callq	__ZNSt3__112basic_stringIcNS_11char_traitsIcEENS_9allocatorIcEEED1Ev
Ltmp499:
	jmp	LBB36_46
LBB36_46:
	jmp	LBB36_47
LBB36_47:
Ltmp505:
	leaq	-776(%rbp), %rdi
	callq	__ZNSt3__118basic_stringstreamIcNS_11char_traitsIcEENS_9allocatorIcEEED1Ev
Ltmp506:
	jmp	LBB36_48
LBB36_48:
	jmp	LBB36_49
LBB36_49:
	movq	-784(%rbp), %rax
	movq	%rax, -912(%rbp)        ## 8-byte Spill
	jmp	LBB36_51
LBB36_50:
Ltmp507:
	movl	%edx, %ecx
	movq	%rax, %rdi
	movl	%ecx, -1028(%rbp)       ## 4-byte Spill
	callq	___clang_call_terminate
LBB36_51:                               ## %unwind_resume
	movq	-912(%rbp), %rax        ## 8-byte Reload
	movq	%rax, %rdi
	callq	__Unwind_Resume
	.cfi_endproc
Leh_func_end36:
	.section	__TEXT,__gcc_except_tab
	.align	2
GCC_except_table36:
Lexception36:
	.byte	255                     ## @LPStart Encoding = omit
	.byte	155                     ## @TType Encoding = indirect pcrel sdata4
	.asciz	"\251\201\200\200"      ## @TType base offset
	.byte	3                       ## Call site Encoding = udata4
	.ascii	"\234\001"              ## Call site table length
Lset184 = Ltmp445-Leh_func_begin36      ## >> Call Site 1 <<
	.long	Lset184
Lset185 = Ltmp446-Ltmp445               ##   Call between Ltmp445 and Ltmp446
	.long	Lset185
Lset186 = Ltmp447-Leh_func_begin36      ##     jumps to Ltmp447
	.long	Lset186
	.byte	0                       ##   On action: cleanup
Lset187 = Ltmp448-Leh_func_begin36      ## >> Call Site 2 <<
	.long	Lset187
Lset188 = Ltmp449-Ltmp448               ##   Call between Ltmp448 and Ltmp449
	.long	Lset188
Lset189 = Ltmp450-Leh_func_begin36      ##     jumps to Ltmp450
	.long	Lset189
	.byte	0                       ##   On action: cleanup
Lset190 = Ltmp451-Leh_func_begin36      ## >> Call Site 3 <<
	.long	Lset190
Lset191 = Ltmp452-Ltmp451               ##   Call between Ltmp451 and Ltmp452
	.long	Lset191
Lset192 = Ltmp453-Leh_func_begin36      ##     jumps to Ltmp453
	.long	Lset192
	.byte	0                       ##   On action: cleanup
Lset193 = Ltmp456-Leh_func_begin36      ## >> Call Site 4 <<
	.long	Lset193
Lset194 = Ltmp457-Ltmp456               ##   Call between Ltmp456 and Ltmp457
	.long	Lset194
Lset195 = Ltmp458-Leh_func_begin36      ##     jumps to Ltmp458
	.long	Lset195
	.byte	0                       ##   On action: cleanup
Lset196 = Ltmp454-Leh_func_begin36      ## >> Call Site 5 <<
	.long	Lset196
Lset197 = Ltmp462-Ltmp454               ##   Call between Ltmp454 and Ltmp462
	.long	Lset197
Lset198 = Ltmp463-Leh_func_begin36      ##     jumps to Ltmp463
	.long	Lset198
	.byte	3                       ##   On action: 2
Lset199 = Ltmp464-Leh_func_begin36      ## >> Call Site 6 <<
	.long	Lset199
Lset200 = Ltmp467-Ltmp464               ##   Call between Ltmp464 and Ltmp467
	.long	Lset200
Lset201 = Ltmp468-Leh_func_begin36      ##     jumps to Ltmp468
	.long	Lset201
	.byte	5                       ##   On action: 3
Lset202 = Ltmp469-Leh_func_begin36      ## >> Call Site 7 <<
	.long	Lset202
Lset203 = Ltmp492-Ltmp469               ##   Call between Ltmp469 and Ltmp492
	.long	Lset203
Lset204 = Ltmp504-Leh_func_begin36      ##     jumps to Ltmp504
	.long	Lset204
	.byte	0                       ##   On action: cleanup
Lset205 = Ltmp493-Leh_func_begin36      ## >> Call Site 8 <<
	.long	Lset205
Lset206 = Ltmp496-Ltmp493               ##   Call between Ltmp493 and Ltmp496
	.long	Lset206
Lset207 = Ltmp497-Leh_func_begin36      ##     jumps to Ltmp497
	.long	Lset207
	.byte	0                       ##   On action: cleanup
Lset208 = Ltmp500-Leh_func_begin36      ## >> Call Site 9 <<
	.long	Lset208
Lset209 = Ltmp503-Ltmp500               ##   Call between Ltmp500 and Ltmp503
	.long	Lset209
Lset210 = Ltmp504-Leh_func_begin36      ##     jumps to Ltmp504
	.long	Lset210
	.byte	0                       ##   On action: cleanup
Lset211 = Ltmp503-Leh_func_begin36      ## >> Call Site 10 <<
	.long	Lset211
Lset212 = Ltmp498-Ltmp503               ##   Call between Ltmp503 and Ltmp498
	.long	Lset212
	.long	0                       ##     has no landing pad
	.byte	0                       ##   On action: cleanup
Lset213 = Ltmp498-Leh_func_begin36      ## >> Call Site 11 <<
	.long	Lset213
Lset214 = Ltmp506-Ltmp498               ##   Call between Ltmp498 and Ltmp506
	.long	Lset214
Lset215 = Ltmp507-Leh_func_begin36      ##     jumps to Ltmp507
	.long	Lset215
	.byte	5                       ##   On action: 3
Lset216 = Ltmp506-Leh_func_begin36      ## >> Call Site 12 <<
	.long	Lset216
Lset217 = Leh_func_end36-Ltmp506        ##   Call between Ltmp506 and Leh_func_end36
	.long	Lset217
	.long	0                       ##     has no landing pad
	.byte	0                       ##   On action: cleanup
	.byte	0                       ## >> Action Record 1 <<
                                        ##   Cleanup
	.byte	0                       ##   No further actions
	.byte	1                       ## >> Action Record 2 <<
                                        ##   Catch TypeInfo 1
	.byte	125                     ##   Continue to action 1
	.byte	1                       ## >> Action Record 3 <<
                                        ##   Catch TypeInfo 1
	.byte	0                       ##   No further actions
                                        ## >> Catch TypeInfos <<
	.long	0                       ## TypeInfo 1
	.align	2

	.section	__TEXT,__textcoal_nt,coalesced,pure_instructions
	.globl	__ZNSt3__1lsINS_11char_traitsIcEEEERNS_13basic_ostreamIcT_EES6_PKc
	.weak_def_can_be_hidden	__ZNSt3__1lsINS_11char_traitsIcEEEERNS_13basic_ostreamIcT_EES6_PKc
	.align	4, 0x90
__ZNSt3__1lsINS_11char_traitsIcEEEERNS_13basic_ostreamIcT_EES6_PKc: ## @_ZNSt3__1lsINS_11char_traitsIcEEEERNS_13basic_ostreamIcT_EES6_PKc
	.cfi_startproc
	.cfi_personality 155, ___gxx_personality_v0
Leh_func_begin37:
	.cfi_lsda 16, Lexception37
## BB#0:
	pushq	%rbp
Ltmp553:
	.cfi_def_cfa_offset 16
Ltmp554:
	.cfi_offset %rbp, -16
	movq	%rsp, %rbp
Ltmp555:
	.cfi_def_cfa_register %rbp
	subq	$432, %rsp              ## imm = 0x1B0
	movq	%rdi, -216(%rbp)
	movq	%rsi, -224(%rbp)
	movq	-216(%rbp), %rsi
Ltmp519:
	leaq	-240(%rbp), %rdi
	callq	__ZNSt3__113basic_ostreamIcNS_11char_traitsIcEEE6sentryC1ERS3_
Ltmp520:
	jmp	LBB37_1
LBB37_1:
	leaq	-240(%rbp), %rax
	movq	%rax, -208(%rbp)
	movq	-208(%rbp), %rax
	movb	(%rax), %cl
	movb	%cl, -281(%rbp)         ## 1-byte Spill
## BB#2:
	movb	-281(%rbp), %al         ## 1-byte Reload
	testb	$1, %al
	jne	LBB37_3
	jmp	LBB37_28
LBB37_3:
	movq	-224(%rbp), %rax
	movq	%rax, -200(%rbp)
Ltmp521:
	movq	%rax, %rdi
	callq	_strlen
Ltmp522:
	movq	%rax, -296(%rbp)        ## 8-byte Spill
	jmp	LBB37_4
LBB37_4:                                ## %_ZNSt3__111char_traitsIcE6lengthEPKc.exit
	jmp	LBB37_5
LBB37_5:
	leaq	-272(%rbp), %rax
	movq	-296(%rbp), %rcx        ## 8-byte Reload
	movq	%rcx, -264(%rbp)
	movq	-216(%rbp), %rdx
	movq	%rax, -184(%rbp)
	movq	%rdx, -192(%rbp)
	movq	-184(%rbp), %rax
	movq	-192(%rbp), %rdx
	movq	%rax, -152(%rbp)
	movq	%rdx, -160(%rbp)
	movq	-152(%rbp), %rax
	movq	-160(%rbp), %rdx
	movq	(%rdx), %rsi
	movq	-24(%rsi), %rsi
	addq	%rsi, %rdx
	movq	%rdx, -144(%rbp)
	movq	-144(%rbp), %rdx
	movq	%rdx, -136(%rbp)
	movq	-136(%rbp), %rdx
	movq	40(%rdx), %rdx
	movq	%rdx, (%rax)
	movq	-224(%rbp), %rsi
	movq	-216(%rbp), %rax
	movq	(%rax), %rdx
	movq	-24(%rdx), %rdx
	addq	%rdx, %rax
	movq	%rax, -96(%rbp)
	movq	-96(%rbp), %rax
	movl	8(%rax), %edi
	movq	%rsi, -304(%rbp)        ## 8-byte Spill
	movl	%edi, -308(%rbp)        ## 4-byte Spill
## BB#6:
	movl	-308(%rbp), %eax        ## 4-byte Reload
	andl	$176, %eax
	cmpl	$32, %eax
	jne	LBB37_8
## BB#7:
	movq	-224(%rbp), %rax
	addq	-264(%rbp), %rax
	movq	%rax, -320(%rbp)        ## 8-byte Spill
	jmp	LBB37_9
LBB37_8:
	movq	-224(%rbp), %rax
	movq	%rax, -320(%rbp)        ## 8-byte Spill
LBB37_9:
	movq	-320(%rbp), %rax        ## 8-byte Reload
	movq	-224(%rbp), %rcx
	addq	-264(%rbp), %rcx
	movq	-216(%rbp), %rdx
	movq	(%rdx), %rsi
	movq	-24(%rsi), %rsi
	addq	%rsi, %rdx
	movq	-216(%rbp), %rsi
	movq	(%rsi), %rdi
	movq	-24(%rdi), %rdi
	addq	%rdi, %rsi
	movq	%rsi, -80(%rbp)
	movq	-80(%rbp), %rsi
	movl	144(%rsi), %r8d
	movl	$-1, -4(%rbp)
	movl	%r8d, -8(%rbp)
	movl	-4(%rbp), %r8d
	cmpl	-8(%rbp), %r8d
	movq	%rax, -328(%rbp)        ## 8-byte Spill
	movq	%rcx, -336(%rbp)        ## 8-byte Spill
	movq	%rdx, -344(%rbp)        ## 8-byte Spill
	movq	%rsi, -352(%rbp)        ## 8-byte Spill
	jne	LBB37_18
## BB#10:
	movq	-352(%rbp), %rax        ## 8-byte Reload
	movq	%rax, -40(%rbp)
	movb	$32, -41(%rbp)
	movq	-40(%rbp), %rsi
Ltmp523:
	leaq	-56(%rbp), %rdi
	callq	__ZNKSt3__18ios_base6getlocEv
Ltmp524:
	jmp	LBB37_11
LBB37_11:                               ## %.noexc
	leaq	-56(%rbp), %rax
	movq	%rax, -32(%rbp)
Ltmp525:
	movq	__ZNSt3__15ctypeIcE2idE@GOTPCREL(%rip), %rsi
	movq	%rax, %rdi
	callq	__ZNKSt3__16locale9use_facetERNS0_2idE
Ltmp526:
	movq	%rax, -360(%rbp)        ## 8-byte Spill
	jmp	LBB37_12
LBB37_12:                               ## %_ZNSt3__19use_facetINS_5ctypeIcEEEERKT_RKNS_6localeE.exit.i.i
	movb	-41(%rbp), %al
	movq	-360(%rbp), %rcx        ## 8-byte Reload
	movq	%rcx, -16(%rbp)
	movb	%al, -17(%rbp)
	movq	-16(%rbp), %rdx
	movq	(%rdx), %rsi
	movq	56(%rsi), %rsi
	movsbl	-17(%rbp), %edi
Ltmp527:
	movl	%edi, -364(%rbp)        ## 4-byte Spill
	movq	%rdx, %rdi
	movl	-364(%rbp), %r8d        ## 4-byte Reload
	movq	%rsi, -376(%rbp)        ## 8-byte Spill
	movl	%r8d, %esi
	movq	-376(%rbp), %rdx        ## 8-byte Reload
	callq	*%rdx
Ltmp528:
	movb	%al, -377(%rbp)         ## 1-byte Spill
	jmp	LBB37_16
LBB37_13:
Ltmp529:
	movl	%edx, %ecx
	movq	%rax, -64(%rbp)
	movl	%ecx, -68(%rbp)
Ltmp530:
	leaq	-56(%rbp), %rdi
	callq	__ZNSt3__16localeD1Ev
Ltmp531:
	jmp	LBB37_14
LBB37_14:
	movq	-64(%rbp), %rax
	movl	-68(%rbp), %ecx
	movq	%rax, -392(%rbp)        ## 8-byte Spill
	movl	%ecx, -396(%rbp)        ## 4-byte Spill
	jmp	LBB37_26
LBB37_15:
Ltmp532:
	movl	%edx, %ecx
	movq	%rax, %rdi
	movl	%ecx, -400(%rbp)        ## 4-byte Spill
	callq	___clang_call_terminate
LBB37_16:                               ## %_ZNKSt3__19basic_iosIcNS_11char_traitsIcEEE5widenEc.exit.i
Ltmp533:
	leaq	-56(%rbp), %rdi
	callq	__ZNSt3__16localeD1Ev
Ltmp534:
	jmp	LBB37_17
LBB37_17:                               ## %.noexc1
	movb	-377(%rbp), %al         ## 1-byte Reload
	movsbl	%al, %ecx
	movq	-352(%rbp), %rdx        ## 8-byte Reload
	movl	%ecx, 144(%rdx)
LBB37_18:                               ## %_ZNKSt3__19basic_iosIcNS_11char_traitsIcEEE4fillEv.exit
	movq	-352(%rbp), %rax        ## 8-byte Reload
	movl	144(%rax), %ecx
	movb	%cl, %dl
	movb	%dl, -401(%rbp)         ## 1-byte Spill
## BB#19:
	movq	-272(%rbp), %rdi
Ltmp535:
	movb	-401(%rbp), %al         ## 1-byte Reload
	movsbl	%al, %r9d
	movq	-304(%rbp), %rsi        ## 8-byte Reload
	movq	-328(%rbp), %rdx        ## 8-byte Reload
	movq	-336(%rbp), %rcx        ## 8-byte Reload
	movq	-344(%rbp), %r8         ## 8-byte Reload
	callq	__ZNSt3__116__pad_and_outputIcNS_11char_traitsIcEEEENS_19ostreambuf_iteratorIT_T0_EES6_PKS4_S8_S8_RNS_8ios_baseES4_
Ltmp536:
	movq	%rax, -416(%rbp)        ## 8-byte Spill
	jmp	LBB37_20
LBB37_20:
	leaq	-280(%rbp), %rax
	movq	-416(%rbp), %rcx        ## 8-byte Reload
	movq	%rcx, -280(%rbp)
	movq	%rax, -88(%rbp)
	movq	-88(%rbp), %rax
	cmpq	$0, (%rax)
	jne	LBB37_27
## BB#21:
	movq	-216(%rbp), %rax
	movq	(%rax), %rcx
	movq	-24(%rcx), %rcx
	addq	%rcx, %rax
	movq	%rax, -120(%rbp)
	movl	$5, -124(%rbp)
	movq	-120(%rbp), %rax
	movq	%rax, -104(%rbp)
	movl	$5, -108(%rbp)
	movq	-104(%rbp), %rax
	movl	32(%rax), %edx
	orl	$5, %edx
Ltmp537:
	movq	%rax, %rdi
	movl	%edx, %esi
	callq	__ZNSt3__18ios_base5clearEj
Ltmp538:
	jmp	LBB37_22
LBB37_22:                               ## %_ZNSt3__19basic_iosIcNS_11char_traitsIcEEE8setstateEj.exit
	jmp	LBB37_23
LBB37_23:
	jmp	LBB37_27
LBB37_24:
Ltmp544:
	movl	%edx, %ecx
	movq	%rax, -248(%rbp)
	movl	%ecx, -252(%rbp)
	jmp	LBB37_31
LBB37_25:
Ltmp539:
	movl	%edx, %ecx
	movq	%rax, -392(%rbp)        ## 8-byte Spill
	movl	%ecx, -396(%rbp)        ## 4-byte Spill
LBB37_26:                               ## %.body
	movl	-396(%rbp), %eax        ## 4-byte Reload
	movq	-392(%rbp), %rcx        ## 8-byte Reload
	movq	%rcx, -248(%rbp)
	movl	%eax, -252(%rbp)
Ltmp540:
	leaq	-240(%rbp), %rdi
	callq	__ZNSt3__113basic_ostreamIcNS_11char_traitsIcEEE6sentryD1Ev
Ltmp541:
	jmp	LBB37_30
LBB37_27:
	jmp	LBB37_28
LBB37_28:
Ltmp542:
	leaq	-240(%rbp), %rdi
	callq	__ZNSt3__113basic_ostreamIcNS_11char_traitsIcEEE6sentryD1Ev
Ltmp543:
	jmp	LBB37_29
LBB37_29:
	jmp	LBB37_33
LBB37_30:
	jmp	LBB37_31
LBB37_31:
	movq	-248(%rbp), %rdi
	callq	___cxa_begin_catch
	movq	-216(%rbp), %rdi
	movq	(%rdi), %rcx
	movq	-24(%rcx), %rcx
	addq	%rcx, %rdi
Ltmp545:
	movq	%rax, -424(%rbp)        ## 8-byte Spill
	callq	__ZNSt3__18ios_base33__set_badbit_and_consider_rethrowEv
Ltmp546:
	jmp	LBB37_32
LBB37_32:
	callq	___cxa_end_catch
LBB37_33:
	movq	-216(%rbp), %rax
	addq	$432, %rsp              ## imm = 0x1B0
	popq	%rbp
	ret
LBB37_34:
Ltmp547:
	movl	%edx, %ecx
	movq	%rax, -248(%rbp)
	movl	%ecx, -252(%rbp)
Ltmp548:
	callq	___cxa_end_catch
Ltmp549:
	jmp	LBB37_35
LBB37_35:
	jmp	LBB37_36
LBB37_36:
	movq	-248(%rbp), %rdi
	callq	__Unwind_Resume
LBB37_37:
Ltmp550:
	movl	%edx, %ecx
	movq	%rax, %rdi
	movl	%ecx, -428(%rbp)        ## 4-byte Spill
	callq	___clang_call_terminate
	.cfi_endproc
Leh_func_end37:
	.section	__TEXT,__gcc_except_tab
	.align	2
GCC_except_table37:
Lexception37:
	.byte	255                     ## @LPStart Encoding = omit
	.byte	155                     ## @TType Encoding = indirect pcrel sdata4
	.asciz	"\253\201"              ## @TType base offset
	.byte	3                       ## Call site Encoding = udata4
	.ascii	"\234\001"              ## Call site table length
Lset218 = Ltmp519-Leh_func_begin37      ## >> Call Site 1 <<
	.long	Lset218
Lset219 = Ltmp520-Ltmp519               ##   Call between Ltmp519 and Ltmp520
	.long	Lset219
Lset220 = Ltmp544-Leh_func_begin37      ##     jumps to Ltmp544
	.long	Lset220
	.byte	5                       ##   On action: 3
Lset221 = Ltmp521-Leh_func_begin37      ## >> Call Site 2 <<
	.long	Lset221
Lset222 = Ltmp524-Ltmp521               ##   Call between Ltmp521 and Ltmp524
	.long	Lset222
Lset223 = Ltmp539-Leh_func_begin37      ##     jumps to Ltmp539
	.long	Lset223
	.byte	5                       ##   On action: 3
Lset224 = Ltmp525-Leh_func_begin37      ## >> Call Site 3 <<
	.long	Lset224
Lset225 = Ltmp528-Ltmp525               ##   Call between Ltmp525 and Ltmp528
	.long	Lset225
Lset226 = Ltmp529-Leh_func_begin37      ##     jumps to Ltmp529
	.long	Lset226
	.byte	3                       ##   On action: 2
Lset227 = Ltmp530-Leh_func_begin37      ## >> Call Site 4 <<
	.long	Lset227
Lset228 = Ltmp531-Ltmp530               ##   Call between Ltmp530 and Ltmp531
	.long	Lset228
Lset229 = Ltmp532-Leh_func_begin37      ##     jumps to Ltmp532
	.long	Lset229
	.byte	7                       ##   On action: 4
Lset230 = Ltmp533-Leh_func_begin37      ## >> Call Site 5 <<
	.long	Lset230
Lset231 = Ltmp538-Ltmp533               ##   Call between Ltmp533 and Ltmp538
	.long	Lset231
Lset232 = Ltmp539-Leh_func_begin37      ##     jumps to Ltmp539
	.long	Lset232
	.byte	5                       ##   On action: 3
Lset233 = Ltmp540-Leh_func_begin37      ## >> Call Site 6 <<
	.long	Lset233
Lset234 = Ltmp541-Ltmp540               ##   Call between Ltmp540 and Ltmp541
	.long	Lset234
Lset235 = Ltmp550-Leh_func_begin37      ##     jumps to Ltmp550
	.long	Lset235
	.byte	5                       ##   On action: 3
Lset236 = Ltmp542-Leh_func_begin37      ## >> Call Site 7 <<
	.long	Lset236
Lset237 = Ltmp543-Ltmp542               ##   Call between Ltmp542 and Ltmp543
	.long	Lset237
Lset238 = Ltmp544-Leh_func_begin37      ##     jumps to Ltmp544
	.long	Lset238
	.byte	5                       ##   On action: 3
Lset239 = Ltmp543-Leh_func_begin37      ## >> Call Site 8 <<
	.long	Lset239
Lset240 = Ltmp545-Ltmp543               ##   Call between Ltmp543 and Ltmp545
	.long	Lset240
	.long	0                       ##     has no landing pad
	.byte	0                       ##   On action: cleanup
Lset241 = Ltmp545-Leh_func_begin37      ## >> Call Site 9 <<
	.long	Lset241
Lset242 = Ltmp546-Ltmp545               ##   Call between Ltmp545 and Ltmp546
	.long	Lset242
Lset243 = Ltmp547-Leh_func_begin37      ##     jumps to Ltmp547
	.long	Lset243
	.byte	0                       ##   On action: cleanup
Lset244 = Ltmp546-Leh_func_begin37      ## >> Call Site 10 <<
	.long	Lset244
Lset245 = Ltmp548-Ltmp546               ##   Call between Ltmp546 and Ltmp548
	.long	Lset245
	.long	0                       ##     has no landing pad
	.byte	0                       ##   On action: cleanup
Lset246 = Ltmp548-Leh_func_begin37      ## >> Call Site 11 <<
	.long	Lset246
Lset247 = Ltmp549-Ltmp548               ##   Call between Ltmp548 and Ltmp549
	.long	Lset247
Lset248 = Ltmp550-Leh_func_begin37      ##     jumps to Ltmp550
	.long	Lset248
	.byte	5                       ##   On action: 3
Lset249 = Ltmp549-Leh_func_begin37      ## >> Call Site 12 <<
	.long	Lset249
Lset250 = Leh_func_end37-Ltmp549        ##   Call between Ltmp549 and Leh_func_end37
	.long	Lset250
	.long	0                       ##     has no landing pad
	.byte	0                       ##   On action: cleanup
	.byte	0                       ## >> Action Record 1 <<
                                        ##   Cleanup
	.byte	0                       ##   No further actions
	.byte	1                       ## >> Action Record 2 <<
                                        ##   Catch TypeInfo 1
	.byte	125                     ##   Continue to action 1
	.byte	1                       ## >> Action Record 3 <<
                                        ##   Catch TypeInfo 1
	.byte	0                       ##   No further actions
	.byte	1                       ## >> Action Record 4 <<
                                        ##   Catch TypeInfo 1
	.byte	125                     ##   Continue to action 3
                                        ## >> Catch TypeInfos <<
	.long	0                       ## TypeInfo 1
	.align	2

	.section	__TEXT,__textcoal_nt,coalesced,pure_instructions
	.globl	__ZNSt3__1lsIcNS_11char_traitsIcEENS_9allocatorIcEEEERNS_13basic_ostreamIT_T0_EES9_RKNS_12basic_stringIS6_S7_T1_EE
	.weak_def_can_be_hidden	__ZNSt3__1lsIcNS_11char_traitsIcEENS_9allocatorIcEEEERNS_13basic_ostreamIT_T0_EES9_RKNS_12basic_stringIS6_S7_T1_EE
	.align	4, 0x90
__ZNSt3__1lsIcNS_11char_traitsIcEENS_9allocatorIcEEEERNS_13basic_ostreamIT_T0_EES9_RKNS_12basic_stringIS6_S7_T1_EE: ## @_ZNSt3__1lsIcNS_11char_traitsIcEENS_9allocatorIcEEEERNS_13basic_ostreamIT_T0_EES9_RKNS_12basic_stringIS6_S7_T1_EE
	.cfi_startproc
	.cfi_personality 155, ___gxx_personality_v0
Leh_func_begin38:
	.cfi_lsda 16, Lexception38
## BB#0:
	pushq	%rbp
Ltmp588:
	.cfi_def_cfa_offset 16
Ltmp589:
	.cfi_offset %rbp, -16
	movq	%rsp, %rbp
Ltmp590:
	.cfi_def_cfa_register %rbp
	subq	$1024, %rsp             ## imm = 0x400
	movq	%rdi, -736(%rbp)
	movq	%rsi, -744(%rbp)
	movq	-736(%rbp), %rsi
Ltmp556:
	leaq	-760(%rbp), %rdi
	callq	__ZNSt3__113basic_ostreamIcNS_11char_traitsIcEEE6sentryC1ERS3_
Ltmp557:
	jmp	LBB38_1
LBB38_1:
	leaq	-760(%rbp), %rax
	movq	%rax, -728(%rbp)
	movq	-728(%rbp), %rax
	movb	(%rax), %cl
	movb	%cl, -801(%rbp)         ## 1-byte Spill
## BB#2:
	movb	-801(%rbp), %al         ## 1-byte Reload
	testb	$1, %al
	jne	LBB38_3
	jmp	LBB38_41
LBB38_3:
	movq	-744(%rbp), %rax
	movq	%rax, -720(%rbp)
	movq	-720(%rbp), %rax
	movq	%rax, -712(%rbp)
	movq	-712(%rbp), %rcx
	movq	%rcx, -704(%rbp)
	movq	-704(%rbp), %rcx
	movq	%rcx, -696(%rbp)
	movq	-696(%rbp), %rcx
	movzbl	(%rcx), %edx
	andl	$1, %edx
	cmpl	$0, %edx
	movq	%rax, -816(%rbp)        ## 8-byte Spill
	je	LBB38_5
## BB#4:
	movq	-816(%rbp), %rax        ## 8-byte Reload
	movq	%rax, -664(%rbp)
	movq	-664(%rbp), %rcx
	movq	%rcx, -656(%rbp)
	movq	-656(%rbp), %rcx
	movq	%rcx, -648(%rbp)
	movq	-648(%rbp), %rcx
	movq	8(%rcx), %rcx
	movq	%rcx, -824(%rbp)        ## 8-byte Spill
	jmp	LBB38_6
LBB38_5:
	movq	-816(%rbp), %rax        ## 8-byte Reload
	movq	%rax, -688(%rbp)
	movq	-688(%rbp), %rcx
	movq	%rcx, -680(%rbp)
	movq	-680(%rbp), %rcx
	movq	%rcx, -672(%rbp)
	movq	-672(%rbp), %rcx
	movzbl	(%rcx), %edx
	sarl	$1, %edx
	movslq	%edx, %rcx
	movq	%rcx, -824(%rbp)        ## 8-byte Spill
LBB38_6:                                ## %_ZNKSt3__112basic_stringIcNS_11char_traitsIcEENS_9allocatorIcEEE4sizeEv.exit
	movq	-824(%rbp), %rax        ## 8-byte Reload
	leaq	-792(%rbp), %rcx
	movq	%rax, -784(%rbp)
	movq	-736(%rbp), %rax
	movq	%rcx, -600(%rbp)
	movq	%rax, -608(%rbp)
	movq	-600(%rbp), %rax
	movq	-608(%rbp), %rcx
	movq	%rax, -568(%rbp)
	movq	%rcx, -576(%rbp)
	movq	-568(%rbp), %rax
	movq	-576(%rbp), %rcx
	movq	(%rcx), %rdx
	movq	-24(%rdx), %rdx
	addq	%rdx, %rcx
	movq	%rcx, -560(%rbp)
	movq	-560(%rbp), %rcx
	movq	%rcx, -552(%rbp)
	movq	-552(%rbp), %rcx
	movq	40(%rcx), %rcx
	movq	%rcx, (%rax)
	movq	-744(%rbp), %rax
	movq	%rax, -536(%rbp)
	movq	-536(%rbp), %rax
	movq	%rax, -528(%rbp)
	movq	-528(%rbp), %rax
	movq	%rax, -520(%rbp)
	movq	-520(%rbp), %rcx
	movq	%rcx, -512(%rbp)
	movq	-512(%rbp), %rcx
	movq	%rcx, -504(%rbp)
	movq	-504(%rbp), %rcx
	movzbl	(%rcx), %esi
	andl	$1, %esi
	cmpl	$0, %esi
	movq	%rax, -832(%rbp)        ## 8-byte Spill
	je	LBB38_8
## BB#7:
	movq	-832(%rbp), %rax        ## 8-byte Reload
	movq	%rax, -456(%rbp)
	movq	-456(%rbp), %rcx
	movq	%rcx, -448(%rbp)
	movq	-448(%rbp), %rcx
	movq	%rcx, -440(%rbp)
	movq	-440(%rbp), %rcx
	movq	16(%rcx), %rcx
	movq	%rcx, -840(%rbp)        ## 8-byte Spill
	jmp	LBB38_9
LBB38_8:
	movq	-832(%rbp), %rax        ## 8-byte Reload
	movq	%rax, -496(%rbp)
	movq	-496(%rbp), %rcx
	movq	%rcx, -488(%rbp)
	movq	-488(%rbp), %rcx
	movq	%rcx, -480(%rbp)
	movq	-480(%rbp), %rcx
	addq	$1, %rcx
	movq	%rcx, -472(%rbp)
	movq	-472(%rbp), %rcx
	movq	%rcx, -464(%rbp)
	movq	-464(%rbp), %rcx
	movq	%rcx, -840(%rbp)        ## 8-byte Spill
LBB38_9:                                ## %_ZNKSt3__112basic_stringIcNS_11char_traitsIcEENS_9allocatorIcEEE4dataEv.exit
	movq	-840(%rbp), %rax        ## 8-byte Reload
	movq	%rax, -432(%rbp)
	movq	-432(%rbp), %rsi
	movq	-736(%rbp), %rax
	movq	(%rax), %rcx
	movq	-24(%rcx), %rcx
	addq	%rcx, %rax
	movq	%rax, -344(%rbp)
	movq	-344(%rbp), %rax
	movl	8(%rax), %edx
	movq	%rsi, -848(%rbp)        ## 8-byte Spill
	movl	%edx, -852(%rbp)        ## 4-byte Spill
## BB#10:
	movl	-852(%rbp), %eax        ## 4-byte Reload
	andl	$176, %eax
	cmpl	$32, %eax
	jne	LBB38_15
## BB#11:
	movq	-744(%rbp), %rax
	movq	%rax, -336(%rbp)
	movq	-336(%rbp), %rax
	movq	%rax, -328(%rbp)
	movq	-328(%rbp), %rax
	movq	%rax, -320(%rbp)
	movq	-320(%rbp), %rcx
	movq	%rcx, -312(%rbp)
	movq	-312(%rbp), %rcx
	movq	%rcx, -304(%rbp)
	movq	-304(%rbp), %rcx
	movzbl	(%rcx), %edx
	andl	$1, %edx
	cmpl	$0, %edx
	movq	%rax, -864(%rbp)        ## 8-byte Spill
	je	LBB38_13
## BB#12:
	movq	-864(%rbp), %rax        ## 8-byte Reload
	movq	%rax, -256(%rbp)
	movq	-256(%rbp), %rcx
	movq	%rcx, -248(%rbp)
	movq	-248(%rbp), %rcx
	movq	%rcx, -240(%rbp)
	movq	-240(%rbp), %rcx
	movq	16(%rcx), %rcx
	movq	%rcx, -872(%rbp)        ## 8-byte Spill
	jmp	LBB38_14
LBB38_13:
	movq	-864(%rbp), %rax        ## 8-byte Reload
	movq	%rax, -296(%rbp)
	movq	-296(%rbp), %rcx
	movq	%rcx, -288(%rbp)
	movq	-288(%rbp), %rcx
	movq	%rcx, -280(%rbp)
	movq	-280(%rbp), %rcx
	addq	$1, %rcx
	movq	%rcx, -272(%rbp)
	movq	-272(%rbp), %rcx
	movq	%rcx, -264(%rbp)
	movq	-264(%rbp), %rcx
	movq	%rcx, -872(%rbp)        ## 8-byte Spill
LBB38_14:                               ## %_ZNKSt3__112basic_stringIcNS_11char_traitsIcEENS_9allocatorIcEEE4dataEv.exit2
	movq	-872(%rbp), %rax        ## 8-byte Reload
	movq	%rax, -232(%rbp)
	movq	-232(%rbp), %rax
	addq	-784(%rbp), %rax
	movq	%rax, -880(%rbp)        ## 8-byte Spill
	jmp	LBB38_19
LBB38_15:
	movq	-744(%rbp), %rax
	movq	%rax, -224(%rbp)
	movq	-224(%rbp), %rax
	movq	%rax, -216(%rbp)
	movq	-216(%rbp), %rax
	movq	%rax, -208(%rbp)
	movq	-208(%rbp), %rcx
	movq	%rcx, -200(%rbp)
	movq	-200(%rbp), %rcx
	movq	%rcx, -192(%rbp)
	movq	-192(%rbp), %rcx
	movzbl	(%rcx), %edx
	andl	$1, %edx
	cmpl	$0, %edx
	movq	%rax, -888(%rbp)        ## 8-byte Spill
	je	LBB38_17
## BB#16:
	movq	-888(%rbp), %rax        ## 8-byte Reload
	movq	%rax, -144(%rbp)
	movq	-144(%rbp), %rcx
	movq	%rcx, -136(%rbp)
	movq	-136(%rbp), %rcx
	movq	%rcx, -128(%rbp)
	movq	-128(%rbp), %rcx
	movq	16(%rcx), %rcx
	movq	%rcx, -896(%rbp)        ## 8-byte Spill
	jmp	LBB38_18
LBB38_17:
	movq	-888(%rbp), %rax        ## 8-byte Reload
	movq	%rax, -184(%rbp)
	movq	-184(%rbp), %rcx
	movq	%rcx, -176(%rbp)
	movq	-176(%rbp), %rcx
	movq	%rcx, -168(%rbp)
	movq	-168(%rbp), %rcx
	addq	$1, %rcx
	movq	%rcx, -160(%rbp)
	movq	-160(%rbp), %rcx
	movq	%rcx, -152(%rbp)
	movq	-152(%rbp), %rcx
	movq	%rcx, -896(%rbp)        ## 8-byte Spill
LBB38_18:                               ## %_ZNKSt3__112basic_stringIcNS_11char_traitsIcEENS_9allocatorIcEEE4dataEv.exit3
	movq	-896(%rbp), %rax        ## 8-byte Reload
	movq	%rax, -120(%rbp)
	movq	-120(%rbp), %rax
	movq	%rax, -880(%rbp)        ## 8-byte Spill
LBB38_19:
	movq	-880(%rbp), %rax        ## 8-byte Reload
	movq	-744(%rbp), %rcx
	movq	%rcx, -112(%rbp)
	movq	-112(%rbp), %rcx
	movq	%rcx, -104(%rbp)
	movq	-104(%rbp), %rcx
	movq	%rcx, -96(%rbp)
	movq	-96(%rbp), %rdx
	movq	%rdx, -88(%rbp)
	movq	-88(%rbp), %rdx
	movq	%rdx, -80(%rbp)
	movq	-80(%rbp), %rdx
	movzbl	(%rdx), %esi
	andl	$1, %esi
	cmpl	$0, %esi
	movq	%rax, -904(%rbp)        ## 8-byte Spill
	movq	%rcx, -912(%rbp)        ## 8-byte Spill
	je	LBB38_21
## BB#20:
	movq	-912(%rbp), %rax        ## 8-byte Reload
	movq	%rax, -32(%rbp)
	movq	-32(%rbp), %rcx
	movq	%rcx, -24(%rbp)
	movq	-24(%rbp), %rcx
	movq	%rcx, -16(%rbp)
	movq	-16(%rbp), %rcx
	movq	16(%rcx), %rcx
	movq	%rcx, -920(%rbp)        ## 8-byte Spill
	jmp	LBB38_22
LBB38_21:
	movq	-912(%rbp), %rax        ## 8-byte Reload
	movq	%rax, -72(%rbp)
	movq	-72(%rbp), %rcx
	movq	%rcx, -64(%rbp)
	movq	-64(%rbp), %rcx
	movq	%rcx, -56(%rbp)
	movq	-56(%rbp), %rcx
	addq	$1, %rcx
	movq	%rcx, -48(%rbp)
	movq	-48(%rbp), %rcx
	movq	%rcx, -40(%rbp)
	movq	-40(%rbp), %rcx
	movq	%rcx, -920(%rbp)        ## 8-byte Spill
LBB38_22:                               ## %_ZNKSt3__112basic_stringIcNS_11char_traitsIcEENS_9allocatorIcEEE4dataEv.exit4
	movq	-920(%rbp), %rax        ## 8-byte Reload
	movq	%rax, -8(%rbp)
	movq	-8(%rbp), %rax
	addq	-784(%rbp), %rax
	movq	-736(%rbp), %rcx
	movq	(%rcx), %rdx
	movq	-24(%rdx), %rdx
	addq	%rdx, %rcx
	movq	-736(%rbp), %rdx
	movq	(%rdx), %rsi
	movq	-24(%rsi), %rsi
	addq	%rsi, %rdx
	movq	%rdx, -424(%rbp)
	movq	-424(%rbp), %rdx
	movl	144(%rdx), %edi
	movl	$-1, -348(%rbp)
	movl	%edi, -352(%rbp)
	movl	-348(%rbp), %edi
	cmpl	-352(%rbp), %edi
	movq	%rax, -928(%rbp)        ## 8-byte Spill
	movq	%rcx, -936(%rbp)        ## 8-byte Spill
	movq	%rdx, -944(%rbp)        ## 8-byte Spill
	jne	LBB38_31
## BB#23:
	movq	-944(%rbp), %rax        ## 8-byte Reload
	movq	%rax, -384(%rbp)
	movb	$32, -385(%rbp)
	movq	-384(%rbp), %rsi
Ltmp558:
	leaq	-400(%rbp), %rdi
	callq	__ZNKSt3__18ios_base6getlocEv
Ltmp559:
	jmp	LBB38_24
LBB38_24:                               ## %.noexc
	leaq	-400(%rbp), %rax
	movq	%rax, -376(%rbp)
Ltmp560:
	movq	__ZNSt3__15ctypeIcE2idE@GOTPCREL(%rip), %rsi
	movq	%rax, %rdi
	callq	__ZNKSt3__16locale9use_facetERNS0_2idE
Ltmp561:
	movq	%rax, -952(%rbp)        ## 8-byte Spill
	jmp	LBB38_25
LBB38_25:                               ## %_ZNSt3__19use_facetINS_5ctypeIcEEEERKT_RKNS_6localeE.exit.i.i
	movb	-385(%rbp), %al
	movq	-952(%rbp), %rcx        ## 8-byte Reload
	movq	%rcx, -360(%rbp)
	movb	%al, -361(%rbp)
	movq	-360(%rbp), %rdx
	movq	(%rdx), %rsi
	movq	56(%rsi), %rsi
	movsbl	-361(%rbp), %edi
Ltmp562:
	movl	%edi, -956(%rbp)        ## 4-byte Spill
	movq	%rdx, %rdi
	movl	-956(%rbp), %r8d        ## 4-byte Reload
	movq	%rsi, -968(%rbp)        ## 8-byte Spill
	movl	%r8d, %esi
	movq	-968(%rbp), %rdx        ## 8-byte Reload
	callq	*%rdx
Ltmp563:
	movb	%al, -969(%rbp)         ## 1-byte Spill
	jmp	LBB38_29
LBB38_26:
Ltmp564:
	movl	%edx, %ecx
	movq	%rax, -408(%rbp)
	movl	%ecx, -412(%rbp)
Ltmp565:
	leaq	-400(%rbp), %rdi
	callq	__ZNSt3__16localeD1Ev
Ltmp566:
	jmp	LBB38_27
LBB38_27:
	movq	-408(%rbp), %rax
	movl	-412(%rbp), %ecx
	movq	%rax, -984(%rbp)        ## 8-byte Spill
	movl	%ecx, -988(%rbp)        ## 4-byte Spill
	jmp	LBB38_39
LBB38_28:
Ltmp567:
	movl	%edx, %ecx
	movq	%rax, %rdi
	movl	%ecx, -992(%rbp)        ## 4-byte Spill
	callq	___clang_call_terminate
LBB38_29:                               ## %_ZNKSt3__19basic_iosIcNS_11char_traitsIcEEE5widenEc.exit.i
Ltmp568:
	leaq	-400(%rbp), %rdi
	callq	__ZNSt3__16localeD1Ev
Ltmp569:
	jmp	LBB38_30
LBB38_30:                               ## %.noexc1
	movb	-969(%rbp), %al         ## 1-byte Reload
	movsbl	%al, %ecx
	movq	-944(%rbp), %rdx        ## 8-byte Reload
	movl	%ecx, 144(%rdx)
LBB38_31:                               ## %_ZNKSt3__19basic_iosIcNS_11char_traitsIcEEE4fillEv.exit
	movq	-944(%rbp), %rax        ## 8-byte Reload
	movl	144(%rax), %ecx
	movb	%cl, %dl
	movb	%dl, -993(%rbp)         ## 1-byte Spill
## BB#32:
	movq	-792(%rbp), %rdi
Ltmp570:
	movb	-993(%rbp), %al         ## 1-byte Reload
	movsbl	%al, %r9d
	movq	-848(%rbp), %rsi        ## 8-byte Reload
	movq	-904(%rbp), %rdx        ## 8-byte Reload
	movq	-928(%rbp), %rcx        ## 8-byte Reload
	movq	-936(%rbp), %r8         ## 8-byte Reload
	callq	__ZNSt3__116__pad_and_outputIcNS_11char_traitsIcEEEENS_19ostreambuf_iteratorIT_T0_EES6_PKS4_S8_S8_RNS_8ios_baseES4_
Ltmp571:
	movq	%rax, -1008(%rbp)       ## 8-byte Spill
	jmp	LBB38_33
LBB38_33:
	leaq	-800(%rbp), %rax
	movq	-1008(%rbp), %rcx       ## 8-byte Reload
	movq	%rcx, -800(%rbp)
	movq	%rax, -544(%rbp)
	movq	-544(%rbp), %rax
	cmpq	$0, (%rax)
	jne	LBB38_40
## BB#34:
	movq	-736(%rbp), %rax
	movq	(%rax), %rcx
	movq	-24(%rcx), %rcx
	addq	%rcx, %rax
	movq	%rax, -632(%rbp)
	movl	$5, -636(%rbp)
	movq	-632(%rbp), %rax
	movq	%rax, -616(%rbp)
	movl	$5, -620(%rbp)
	movq	-616(%rbp), %rax
	movl	32(%rax), %edx
	orl	$5, %edx
Ltmp572:
	movq	%rax, %rdi
	movl	%edx, %esi
	callq	__ZNSt3__18ios_base5clearEj
Ltmp573:
	jmp	LBB38_35
LBB38_35:                               ## %_ZNSt3__19basic_iosIcNS_11char_traitsIcEEE8setstateEj.exit
	jmp	LBB38_36
LBB38_36:
	jmp	LBB38_40
LBB38_37:
Ltmp579:
	movl	%edx, %ecx
	movq	%rax, -768(%rbp)
	movl	%ecx, -772(%rbp)
	jmp	LBB38_44
LBB38_38:
Ltmp574:
	movl	%edx, %ecx
	movq	%rax, -984(%rbp)        ## 8-byte Spill
	movl	%ecx, -988(%rbp)        ## 4-byte Spill
LBB38_39:                               ## %.body
	movl	-988(%rbp), %eax        ## 4-byte Reload
	movq	-984(%rbp), %rcx        ## 8-byte Reload
	movq	%rcx, -768(%rbp)
	movl	%eax, -772(%rbp)
Ltmp575:
	leaq	-760(%rbp), %rdi
	callq	__ZNSt3__113basic_ostreamIcNS_11char_traitsIcEEE6sentryD1Ev
Ltmp576:
	jmp	LBB38_43
LBB38_40:
	jmp	LBB38_41
LBB38_41:
Ltmp577:
	leaq	-760(%rbp), %rdi
	callq	__ZNSt3__113basic_ostreamIcNS_11char_traitsIcEEE6sentryD1Ev
Ltmp578:
	jmp	LBB38_42
LBB38_42:
	jmp	LBB38_46
LBB38_43:
	jmp	LBB38_44
LBB38_44:
	movq	-768(%rbp), %rdi
	callq	___cxa_begin_catch
	movq	-736(%rbp), %rdi
	movq	(%rdi), %rcx
	movq	-24(%rcx), %rcx
	addq	%rcx, %rdi
Ltmp580:
	movq	%rax, -1016(%rbp)       ## 8-byte Spill
	callq	__ZNSt3__18ios_base33__set_badbit_and_consider_rethrowEv
Ltmp581:
	jmp	LBB38_45
LBB38_45:
	callq	___cxa_end_catch
LBB38_46:
	movq	-736(%rbp), %rax
	addq	$1024, %rsp             ## imm = 0x400
	popq	%rbp
	ret
LBB38_47:
Ltmp582:
	movl	%edx, %ecx
	movq	%rax, -768(%rbp)
	movl	%ecx, -772(%rbp)
Ltmp583:
	callq	___cxa_end_catch
Ltmp584:
	jmp	LBB38_48
LBB38_48:
	jmp	LBB38_49
LBB38_49:
	movq	-768(%rbp), %rdi
	callq	__Unwind_Resume
LBB38_50:
Ltmp585:
	movl	%edx, %ecx
	movq	%rax, %rdi
	movl	%ecx, -1020(%rbp)       ## 4-byte Spill
	callq	___clang_call_terminate
	.cfi_endproc
Leh_func_end38:
	.section	__TEXT,__gcc_except_tab
	.align	2
GCC_except_table38:
Lexception38:
	.byte	255                     ## @LPStart Encoding = omit
	.byte	155                     ## @TType Encoding = indirect pcrel sdata4
	.asciz	"\253\201"              ## @TType base offset
	.byte	3                       ## Call site Encoding = udata4
	.ascii	"\234\001"              ## Call site table length
Lset251 = Ltmp556-Leh_func_begin38      ## >> Call Site 1 <<
	.long	Lset251
Lset252 = Ltmp557-Ltmp556               ##   Call between Ltmp556 and Ltmp557
	.long	Lset252
Lset253 = Ltmp579-Leh_func_begin38      ##     jumps to Ltmp579
	.long	Lset253
	.byte	5                       ##   On action: 3
Lset254 = Ltmp558-Leh_func_begin38      ## >> Call Site 2 <<
	.long	Lset254
Lset255 = Ltmp559-Ltmp558               ##   Call between Ltmp558 and Ltmp559
	.long	Lset255
Lset256 = Ltmp574-Leh_func_begin38      ##     jumps to Ltmp574
	.long	Lset256
	.byte	5                       ##   On action: 3
Lset257 = Ltmp560-Leh_func_begin38      ## >> Call Site 3 <<
	.long	Lset257
Lset258 = Ltmp563-Ltmp560               ##   Call between Ltmp560 and Ltmp563
	.long	Lset258
Lset259 = Ltmp564-Leh_func_begin38      ##     jumps to Ltmp564
	.long	Lset259
	.byte	3                       ##   On action: 2
Lset260 = Ltmp565-Leh_func_begin38      ## >> Call Site 4 <<
	.long	Lset260
Lset261 = Ltmp566-Ltmp565               ##   Call between Ltmp565 and Ltmp566
	.long	Lset261
Lset262 = Ltmp567-Leh_func_begin38      ##     jumps to Ltmp567
	.long	Lset262
	.byte	7                       ##   On action: 4
Lset263 = Ltmp568-Leh_func_begin38      ## >> Call Site 5 <<
	.long	Lset263
Lset264 = Ltmp573-Ltmp568               ##   Call between Ltmp568 and Ltmp573
	.long	Lset264
Lset265 = Ltmp574-Leh_func_begin38      ##     jumps to Ltmp574
	.long	Lset265
	.byte	5                       ##   On action: 3
Lset266 = Ltmp575-Leh_func_begin38      ## >> Call Site 6 <<
	.long	Lset266
Lset267 = Ltmp576-Ltmp575               ##   Call between Ltmp575 and Ltmp576
	.long	Lset267
Lset268 = Ltmp585-Leh_func_begin38      ##     jumps to Ltmp585
	.long	Lset268
	.byte	5                       ##   On action: 3
Lset269 = Ltmp577-Leh_func_begin38      ## >> Call Site 7 <<
	.long	Lset269
Lset270 = Ltmp578-Ltmp577               ##   Call between Ltmp577 and Ltmp578
	.long	Lset270
Lset271 = Ltmp579-Leh_func_begin38      ##     jumps to Ltmp579
	.long	Lset271
	.byte	5                       ##   On action: 3
Lset272 = Ltmp578-Leh_func_begin38      ## >> Call Site 8 <<
	.long	Lset272
Lset273 = Ltmp580-Ltmp578               ##   Call between Ltmp578 and Ltmp580
	.long	Lset273
	.long	0                       ##     has no landing pad
	.byte	0                       ##   On action: cleanup
Lset274 = Ltmp580-Leh_func_begin38      ## >> Call Site 9 <<
	.long	Lset274
Lset275 = Ltmp581-Ltmp580               ##   Call between Ltmp580 and Ltmp581
	.long	Lset275
Lset276 = Ltmp582-Leh_func_begin38      ##     jumps to Ltmp582
	.long	Lset276
	.byte	0                       ##   On action: cleanup
Lset277 = Ltmp581-Leh_func_begin38      ## >> Call Site 10 <<
	.long	Lset277
Lset278 = Ltmp583-Ltmp581               ##   Call between Ltmp581 and Ltmp583
	.long	Lset278
	.long	0                       ##     has no landing pad
	.byte	0                       ##   On action: cleanup
Lset279 = Ltmp583-Leh_func_begin38      ## >> Call Site 11 <<
	.long	Lset279
Lset280 = Ltmp584-Ltmp583               ##   Call between Ltmp583 and Ltmp584
	.long	Lset280
Lset281 = Ltmp585-Leh_func_begin38      ##     jumps to Ltmp585
	.long	Lset281
	.byte	5                       ##   On action: 3
Lset282 = Ltmp584-Leh_func_begin38      ## >> Call Site 12 <<
	.long	Lset282
Lset283 = Leh_func_end38-Ltmp584        ##   Call between Ltmp584 and Leh_func_end38
	.long	Lset283
	.long	0                       ##     has no landing pad
	.byte	0                       ##   On action: cleanup
	.byte	0                       ## >> Action Record 1 <<
                                        ##   Cleanup
	.byte	0                       ##   No further actions
	.byte	1                       ## >> Action Record 2 <<
                                        ##   Catch TypeInfo 1
	.byte	125                     ##   Continue to action 1
	.byte	1                       ## >> Action Record 3 <<
                                        ##   Catch TypeInfo 1
	.byte	0                       ##   No further actions
	.byte	1                       ## >> Action Record 4 <<
                                        ##   Catch TypeInfo 1
	.byte	125                     ##   Continue to action 3
                                        ## >> Catch TypeInfos <<
	.long	0                       ## TypeInfo 1
	.align	2

	.section	__TEXT,__textcoal_nt,coalesced,pure_instructions
	.private_extern	__ZNSt3__14endlIcNS_11char_traitsIcEEEERNS_13basic_ostreamIT_T0_EES7_
	.globl	__ZNSt3__14endlIcNS_11char_traitsIcEEEERNS_13basic_ostreamIT_T0_EES7_
	.weak_definition	__ZNSt3__14endlIcNS_11char_traitsIcEEEERNS_13basic_ostreamIT_T0_EES7_
	.align	4, 0x90
__ZNSt3__14endlIcNS_11char_traitsIcEEEERNS_13basic_ostreamIT_T0_EES7_: ## @_ZNSt3__14endlIcNS_11char_traitsIcEEEERNS_13basic_ostreamIT_T0_EES7_
	.cfi_startproc
	.cfi_personality 155, ___gxx_personality_v0
Leh_func_begin39:
	.cfi_lsda 16, Lexception39
## BB#0:
	pushq	%rbp
Ltmp601:
	.cfi_def_cfa_offset 16
Ltmp602:
	.cfi_offset %rbp, -16
	movq	%rsp, %rbp
Ltmp603:
	.cfi_def_cfa_register %rbp
	subq	$144, %rsp
	movq	%rdi, -72(%rbp)
	movq	%rdi, %rax
	movq	(%rdi), %rcx
	movq	-24(%rcx), %rcx
	addq	%rcx, %rdi
	movq	%rdi, -32(%rbp)
	movb	$10, -33(%rbp)
	movq	-32(%rbp), %rsi
	leaq	-48(%rbp), %rcx
	movq	%rcx, %rdi
	movq	%rax, -80(%rbp)         ## 8-byte Spill
	movq	%rcx, -88(%rbp)         ## 8-byte Spill
	callq	__ZNKSt3__18ios_base6getlocEv
	movq	-88(%rbp), %rax         ## 8-byte Reload
	movq	%rax, -24(%rbp)
Ltmp591:
	movq	__ZNSt3__15ctypeIcE2idE@GOTPCREL(%rip), %rsi
	movq	%rax, %rdi
	callq	__ZNKSt3__16locale9use_facetERNS0_2idE
Ltmp592:
	movq	%rax, -96(%rbp)         ## 8-byte Spill
	jmp	LBB39_1
LBB39_1:                                ## %_ZNSt3__19use_facetINS_5ctypeIcEEEERKT_RKNS_6localeE.exit.i
	movb	-33(%rbp), %al
	movq	-96(%rbp), %rcx         ## 8-byte Reload
	movq	%rcx, -8(%rbp)
	movb	%al, -9(%rbp)
	movq	-8(%rbp), %rdx
	movq	(%rdx), %rsi
	movq	56(%rsi), %rsi
	movsbl	-9(%rbp), %edi
Ltmp593:
	movl	%edi, -100(%rbp)        ## 4-byte Spill
	movq	%rdx, %rdi
	movl	-100(%rbp), %r8d        ## 4-byte Reload
	movq	%rsi, -112(%rbp)        ## 8-byte Spill
	movl	%r8d, %esi
	movq	-112(%rbp), %rdx        ## 8-byte Reload
	callq	*%rdx
Ltmp594:
	movb	%al, -113(%rbp)         ## 1-byte Spill
	jmp	LBB39_5
LBB39_2:
Ltmp595:
	movl	%edx, %ecx
	movq	%rax, -56(%rbp)
	movl	%ecx, -60(%rbp)
Ltmp596:
	leaq	-48(%rbp), %rdi
	callq	__ZNSt3__16localeD1Ev
Ltmp597:
	jmp	LBB39_3
LBB39_3:
	movq	-56(%rbp), %rdi
	callq	__Unwind_Resume
LBB39_4:
Ltmp598:
	movl	%edx, %ecx
	movq	%rax, %rdi
	movl	%ecx, -120(%rbp)        ## 4-byte Spill
	callq	___clang_call_terminate
LBB39_5:                                ## %_ZNKSt3__19basic_iosIcNS_11char_traitsIcEEE5widenEc.exit
	leaq	-48(%rbp), %rdi
	callq	__ZNSt3__16localeD1Ev
	movq	-80(%rbp), %rdi         ## 8-byte Reload
	movb	-113(%rbp), %al         ## 1-byte Reload
	movsbl	%al, %esi
	callq	__ZNSt3__113basic_ostreamIcNS_11char_traitsIcEEE3putEc
	movq	-72(%rbp), %rdi
	movq	%rax, -128(%rbp)        ## 8-byte Spill
	callq	__ZNSt3__113basic_ostreamIcNS_11char_traitsIcEEE5flushEv
	movq	-72(%rbp), %rdi
	movq	%rax, -136(%rbp)        ## 8-byte Spill
	movq	%rdi, %rax
	addq	$144, %rsp
	popq	%rbp
	ret
	.cfi_endproc
Leh_func_end39:
	.section	__TEXT,__gcc_except_tab
	.align	2
GCC_except_table39:
Lexception39:
	.byte	255                     ## @LPStart Encoding = omit
	.byte	155                     ## @TType Encoding = indirect pcrel sdata4
	.asciz	"\274"                  ## @TType base offset
	.byte	3                       ## Call site Encoding = udata4
	.byte	52                      ## Call site table length
Lset284 = Leh_func_begin39-Leh_func_begin39 ## >> Call Site 1 <<
	.long	Lset284
Lset285 = Ltmp591-Leh_func_begin39      ##   Call between Leh_func_begin39 and Ltmp591
	.long	Lset285
	.long	0                       ##     has no landing pad
	.byte	0                       ##   On action: cleanup
Lset286 = Ltmp591-Leh_func_begin39      ## >> Call Site 2 <<
	.long	Lset286
Lset287 = Ltmp594-Ltmp591               ##   Call between Ltmp591 and Ltmp594
	.long	Lset287
Lset288 = Ltmp595-Leh_func_begin39      ##     jumps to Ltmp595
	.long	Lset288
	.byte	0                       ##   On action: cleanup
Lset289 = Ltmp596-Leh_func_begin39      ## >> Call Site 3 <<
	.long	Lset289
Lset290 = Ltmp597-Ltmp596               ##   Call between Ltmp596 and Ltmp597
	.long	Lset290
Lset291 = Ltmp598-Leh_func_begin39      ##     jumps to Ltmp598
	.long	Lset291
	.byte	1                       ##   On action: 1
Lset292 = Ltmp597-Leh_func_begin39      ## >> Call Site 4 <<
	.long	Lset292
Lset293 = Leh_func_end39-Ltmp597        ##   Call between Ltmp597 and Leh_func_end39
	.long	Lset293
	.long	0                       ##     has no landing pad
	.byte	0                       ##   On action: cleanup
	.byte	1                       ## >> Action Record 1 <<
                                        ##   Catch TypeInfo 1
	.byte	0                       ##   No further actions
                                        ## >> Catch TypeInfos <<
	.long	0                       ## TypeInfo 1
	.align	2

	.section	__TEXT,__text,regular,pure_instructions
	.globl	__ZN5Store11stringToIntENSt3__112basic_stringIcNS0_11char_traitsIcEENS0_9allocatorIcEEEE
	.align	4, 0x90
__ZN5Store11stringToIntENSt3__112basic_stringIcNS0_11char_traitsIcEENS0_9allocatorIcEEEE: ## @_ZN5Store11stringToIntENSt3__112basic_stringIcNS0_11char_traitsIcEENS0_9allocatorIcEEEE
	.cfi_startproc
	.cfi_personality 155, ___gxx_personality_v0
Leh_func_begin40:
	.cfi_lsda 16, Lexception40
## BB#0:
	pushq	%rbp
Ltmp740:
	.cfi_def_cfa_offset 16
Ltmp741:
	.cfi_offset %rbp, -16
	movq	%rsp, %rbp
Ltmp742:
	.cfi_def_cfa_register %rbp
	subq	$2128, %rsp             ## imm = 0x850
	leaq	-960(%rbp), %rax
	movq	___stack_chk_guard@GOTPCREL(%rip), %rcx
	movq	(%rcx), %rcx
	movq	%rcx, -8(%rbp)
	movq	%rdi, -816(%rbp)
	movq	-816(%rbp), %rcx
	movq	%rax, %rdi
	addq	$144, %rdi
	movq	%rdi, -1544(%rbp)       ## 8-byte Spill
	movq	%rsi, -1552(%rbp)       ## 8-byte Spill
	movq	%rcx, -1560(%rbp)       ## 8-byte Spill
	movq	%rax, -1568(%rbp)       ## 8-byte Spill
LBB40_1:                                ## =>This Loop Header: Depth=1
                                        ##     Child Loop BB40_2 Depth 2
	movq	-1568(%rbp), %rax       ## 8-byte Reload
	movq	%rax, -808(%rbp)
	movq	-808(%rbp), %rcx
	movq	%rcx, -800(%rbp)
	movq	-800(%rbp), %rcx
	movq	%rcx, -792(%rbp)
	movq	-792(%rbp), %rdx
	movq	%rdx, -784(%rbp)
	movq	-784(%rbp), %rdx
	movq	%rdx, -776(%rbp)
	movq	-776(%rbp), %rdx
	movq	%rdx, -768(%rbp)
	movq	%rcx, -744(%rbp)
	movq	-744(%rbp), %rcx
	movq	%rcx, -736(%rbp)
	movq	-736(%rbp), %rcx
	movq	%rcx, -728(%rbp)
	movq	-728(%rbp), %rcx
	movq	%rcx, -752(%rbp)
	movl	$0, -756(%rbp)
	movq	%rax, -1576(%rbp)       ## 8-byte Spill
LBB40_2:                                ##   Parent Loop BB40_1 Depth=1
                                        ## =>  This Inner Loop Header: Depth=2
	cmpl	$3, -756(%rbp)
	jae	LBB40_4
## BB#3:                                ##   in Loop: Header=BB40_2 Depth=2
	movl	-756(%rbp), %eax
	movl	%eax, %ecx
	movq	-752(%rbp), %rdx
	movq	$0, (%rdx,%rcx,8)
	movl	-756(%rbp), %eax
	addl	$1, %eax
	movl	%eax, -756(%rbp)
	jmp	LBB40_2
LBB40_4:                                ## %_ZNSt3__112basic_stringIcNS_11char_traitsIcEENS_9allocatorIcEEEC1Ev.exit
                                        ##   in Loop: Header=BB40_1 Depth=1
	jmp	LBB40_5
LBB40_5:                                ##   in Loop: Header=BB40_1 Depth=1
	movq	-1576(%rbp), %rax       ## 8-byte Reload
	addq	$24, %rax
	movq	-1544(%rbp), %rcx       ## 8-byte Reload
	cmpq	%rcx, %rax
	movq	%rax, -1568(%rbp)       ## 8-byte Spill
	jne	LBB40_1
## BB#6:
	movl	$0, -976(%rbp)
	leaq	-1256(%rbp), %rax
	movq	%rax, -688(%rbp)
	movq	-1552(%rbp), %rax       ## 8-byte Reload
	movq	%rax, -696(%rbp)
	movl	$24, -700(%rbp)
	movq	-688(%rbp), %rcx
	movq	%rcx, %rdx
	subq	$-128, %rdx
	movq	%rdx, -680(%rbp)
	movq	%rdx, -672(%rbp)
	movq	__ZTVNSt3__18ios_baseE@GOTPCREL(%rip), %rdx
	addq	$16, %rdx
	movq	%rdx, 128(%rcx)
	movq	__ZTVNSt3__19basic_iosIcNS_11char_traitsIcEEEE@GOTPCREL(%rip), %rdx
	addq	$16, %rdx
	movq	%rdx, 128(%rcx)
	movq	__ZTVNSt3__118basic_stringstreamIcNS_11char_traitsIcEENS_9allocatorIcEEEE@GOTPCREL(%rip), %rdx
	movq	%rdx, %rsi
	addq	$24, %rsi
	movq	%rsi, (%rcx)
	movq	%rdx, %rsi
	addq	$104, %rsi
	movq	%rsi, 128(%rcx)
	addq	$64, %rdx
	movq	%rdx, 16(%rcx)
	movq	%rcx, %rdx
	addq	$24, %rdx
	movq	%rcx, -632(%rbp)
	movq	__ZTTNSt3__118basic_stringstreamIcNS_11char_traitsIcEENS_9allocatorIcEEEE@GOTPCREL(%rip), %rsi
	addq	$8, %rsi
	movq	%rsi, -640(%rbp)
	movq	%rdx, -648(%rbp)
	movq	-632(%rbp), %rsi
	movq	-640(%rbp), %rdi
	movq	%rdi, %r8
	addq	$8, %r8
	movq	%rsi, -608(%rbp)
	movq	%r8, -616(%rbp)
	movq	%rdx, -624(%rbp)
	movq	-608(%rbp), %rdx
	movq	-616(%rbp), %r8
	movq	(%r8), %r9
	movq	%r9, (%rdx)
	movq	8(%r8), %r8
	movq	-24(%r9), %r9
	movq	%r8, (%rdx,%r9)
	movq	$0, 8(%rdx)
	movq	(%rdx), %r8
	movq	-24(%r8), %r8
	addq	%r8, %rdx
	movq	-624(%rbp), %r8
	movq	%rdx, -592(%rbp)
	movq	%r8, -600(%rbp)
	movq	-592(%rbp), %rdx
Ltmp604:
	movq	%rdi, -1584(%rbp)       ## 8-byte Spill
	movq	%rdx, %rdi
	movq	%rsi, -1592(%rbp)       ## 8-byte Spill
	movq	%r8, %rsi
	movq	%rcx, -1600(%rbp)       ## 8-byte Spill
	movq	%rdx, -1608(%rbp)       ## 8-byte Spill
	callq	__ZNSt3__18ios_base4initEPv
Ltmp605:
	jmp	LBB40_7
LBB40_7:                                ## %_ZNSt3__114basic_iostreamIcNS_11char_traitsIcEEEC2EPNS_15basic_streambufIcS2_EE.exit.i
	movq	-1608(%rbp), %rax       ## 8-byte Reload
	movq	$0, 136(%rax)
	movl	$-1, 144(%rax)
	movq	-1592(%rbp), %rcx       ## 8-byte Reload
	addq	$16, %rcx
	movq	-1584(%rbp), %rdx       ## 8-byte Reload
	addq	$24, %rdx
	movq	%rcx, -576(%rbp)
	movq	%rdx, -584(%rbp)
	movq	-576(%rbp), %rcx
	movq	-1584(%rbp), %rdx       ## 8-byte Reload
	movq	24(%rdx), %rsi
	movq	%rsi, (%rcx)
	movq	32(%rdx), %rdi
	movq	-24(%rsi), %rsi
	movq	%rdi, (%rcx,%rsi)
	movq	(%rdx), %rcx
	movq	-1592(%rbp), %rsi       ## 8-byte Reload
	movq	%rcx, (%rsi)
	movq	40(%rdx), %rdi
	movq	-24(%rcx), %rcx
	movq	%rdi, (%rsi,%rcx)
	movq	48(%rdx), %rcx
	movq	%rcx, 16(%rsi)
	movq	__ZTVNSt3__118basic_stringstreamIcNS_11char_traitsIcEENS_9allocatorIcEEEE@GOTPCREL(%rip), %rcx
	movq	%rcx, %rdi
	addq	$24, %rdi
	movq	-1600(%rbp), %r8        ## 8-byte Reload
	movq	%rdi, (%r8)
	movq	%rcx, %rdi
	addq	$104, %rdi
	movq	%rdi, 128(%r8)
	addq	$64, %rcx
	movq	%rcx, 16(%r8)
	addq	$24, %r8
	movq	-696(%rbp), %rcx
	movl	-700(%rbp), %r9d
	movq	%r8, -552(%rbp)
	movq	%rcx, -560(%rbp)
	movl	%r9d, -564(%rbp)
	movq	-552(%rbp), %rcx
	movq	-560(%rbp), %rdi
	movq	%rcx, -512(%rbp)
	movq	%rdi, -520(%rbp)
	movl	%r9d, -524(%rbp)
	movq	-512(%rbp), %rcx
Ltmp607:
	movq	%rcx, %rdi
	movq	%rcx, -1616(%rbp)       ## 8-byte Spill
	callq	__ZNSt3__115basic_streambufIcNS_11char_traitsIcEEEC2Ev
Ltmp608:
	jmp	LBB40_8
LBB40_8:                                ## %.noexc.i
	movq	__ZTVNSt3__115basic_stringbufIcNS_11char_traitsIcEENS_9allocatorIcEEEE@GOTPCREL(%rip), %rax
	addq	$16, %rax
	movq	-1616(%rbp), %rcx       ## 8-byte Reload
	movq	%rax, (%rcx)
	addq	$64, %rcx
	movq	%rcx, -504(%rbp)
	movq	-504(%rbp), %rax
	movq	%rax, -496(%rbp)
	movq	-496(%rbp), %rax
	movq	%rax, -488(%rbp)
	movq	-488(%rbp), %rdx
	movq	%rdx, -480(%rbp)
	movq	-480(%rbp), %rdx
	movq	%rdx, -472(%rbp)
	movq	-472(%rbp), %rdx
	movq	%rdx, -464(%rbp)
	movq	%rax, -440(%rbp)
	movq	-440(%rbp), %rax
	movq	%rax, -432(%rbp)
	movq	-432(%rbp), %rax
	movq	%rax, -424(%rbp)
	movq	-424(%rbp), %rax
	movq	%rax, -448(%rbp)
	movl	$0, -452(%rbp)
	movq	%rcx, -1624(%rbp)       ## 8-byte Spill
LBB40_9:                                ## =>This Inner Loop Header: Depth=1
	cmpl	$3, -452(%rbp)
	jae	LBB40_11
## BB#10:                               ##   in Loop: Header=BB40_9 Depth=1
	movl	-452(%rbp), %eax
	movl	%eax, %ecx
	movq	-448(%rbp), %rdx
	movq	$0, (%rdx,%rcx,8)
	movl	-452(%rbp), %eax
	addl	$1, %eax
	movl	%eax, -452(%rbp)
	jmp	LBB40_9
LBB40_11:                               ## %_ZNSt3__112basic_stringIcNS_11char_traitsIcEENS_9allocatorIcEEEC1Ev.exit.i.i.i
	movq	-1616(%rbp), %rax       ## 8-byte Reload
	movq	$0, 88(%rax)
	movl	-524(%rbp), %ecx
	movl	%ecx, 96(%rax)
	movq	-520(%rbp), %rsi
Ltmp610:
	movq	%rax, %rdi
	callq	__ZNSt3__115basic_stringbufIcNS_11char_traitsIcEENS_9allocatorIcEEE3strERKNS_12basic_stringIcS2_S4_EE
Ltmp611:
	jmp	LBB40_23
LBB40_12:
Ltmp612:
	movl	%edx, %ecx
	movq	%rax, -536(%rbp)
	movl	%ecx, -540(%rbp)
Ltmp613:
	movq	-1624(%rbp), %rdi       ## 8-byte Reload
	callq	__ZNSt3__112basic_stringIcNS_11char_traitsIcEENS_9allocatorIcEEED1Ev
Ltmp614:
	jmp	LBB40_13
LBB40_13:
Ltmp615:
	movq	-1616(%rbp), %rdi       ## 8-byte Reload
	callq	__ZNSt3__115basic_streambufIcNS_11char_traitsIcEEED2Ev
Ltmp616:
	jmp	LBB40_14
LBB40_14:
	movq	-536(%rbp), %rax
	movl	-540(%rbp), %ecx
	movq	%rax, -1632(%rbp)       ## 8-byte Spill
	movl	%ecx, -1636(%rbp)       ## 4-byte Spill
	jmp	LBB40_18
LBB40_15:
Ltmp617:
	movl	%edx, %ecx
	movq	%rax, %rdi
	movl	%ecx, -1640(%rbp)       ## 4-byte Spill
	callq	___clang_call_terminate
LBB40_16:
Ltmp606:
	movl	%edx, %ecx
	movq	%rax, -712(%rbp)
	movl	%ecx, -716(%rbp)
	jmp	LBB40_20
LBB40_17:
Ltmp609:
	movl	%edx, %ecx
	movq	%rax, -1632(%rbp)       ## 8-byte Spill
	movl	%ecx, -1636(%rbp)       ## 4-byte Spill
LBB40_18:                               ## %.body.i
	movl	-1636(%rbp), %eax       ## 4-byte Reload
	movq	-1632(%rbp), %rcx       ## 8-byte Reload
	movq	%rcx, -712(%rbp)
	movl	%eax, -716(%rbp)
Ltmp618:
	movq	__ZTTNSt3__118basic_stringstreamIcNS_11char_traitsIcEENS_9allocatorIcEEEE@GOTPCREL(%rip), %rcx
	addq	$8, %rcx
	movq	-1600(%rbp), %rdi       ## 8-byte Reload
	movq	%rcx, %rsi
	callq	__ZNSt3__114basic_iostreamIcNS_11char_traitsIcEEED2Ev
Ltmp619:
	jmp	LBB40_19
LBB40_19:
	jmp	LBB40_20
LBB40_20:
	movq	-1600(%rbp), %rax       ## 8-byte Reload
	subq	$-128, %rax
Ltmp620:
	movq	%rax, %rdi
	callq	__ZNSt3__19basic_iosIcNS_11char_traitsIcEEED2Ev
Ltmp621:
	jmp	LBB40_21
LBB40_21:
	movq	-712(%rbp), %rax
	movl	-716(%rbp), %ecx
	movq	%rax, -1648(%rbp)       ## 8-byte Spill
	movl	%ecx, -1652(%rbp)       ## 4-byte Spill
	jmp	LBB40_32
LBB40_22:
Ltmp622:
	movl	%edx, %ecx
	movq	%rax, %rdi
	movl	%ecx, -1656(%rbp)       ## 4-byte Spill
	callq	___clang_call_terminate
LBB40_23:                               ## %_ZNSt3__118basic_stringstreamIcNS_11char_traitsIcEENS_9allocatorIcEEEC1ERKNS_12basic_stringIcS2_S4_EEj.exit
	jmp	LBB40_24
LBB40_24:
	jmp	LBB40_25
LBB40_25:                               ## =>This Inner Loop Header: Depth=1
	leaq	-1256(%rbp), %rax
	movq	-1256(%rbp), %rcx
	movq	-24(%rcx), %rcx
	addq	%rcx, %rax
	movq	%rax, -416(%rbp)
	movq	-416(%rbp), %rax
	movq	%rax, -408(%rbp)
	movq	-408(%rbp), %rax
	cmpl	$0, 32(%rax)
	sete	%dl
	movb	%dl, -1657(%rbp)        ## 1-byte Spill
## BB#26:                               ##   in Loop: Header=BB40_25 Depth=1
	movb	$0, %al
	movb	-1657(%rbp), %cl        ## 1-byte Reload
	testb	$1, %cl
	movb	%al, -1658(%rbp)        ## 1-byte Spill
	jne	LBB40_27
	jmp	LBB40_28
LBB40_27:                               ##   in Loop: Header=BB40_25 Depth=1
	cmpl	$6, -976(%rbp)
	setl	%al
	movb	%al, -1658(%rbp)        ## 1-byte Spill
LBB40_28:                               ##   in Loop: Header=BB40_25 Depth=1
	movb	-1658(%rbp), %al        ## 1-byte Reload
	testb	$1, %al
	jne	LBB40_29
	jmp	LBB40_35
LBB40_29:                               ##   in Loop: Header=BB40_25 Depth=1
	movslq	-976(%rbp), %rax
	leaq	(%rax,%rax,2), %rax
	leaq	-960(%rbp,%rax,8), %rsi
Ltmp730:
	leaq	-1256(%rbp), %rdi
	callq	__ZNSt3__1rsIcNS_11char_traitsIcEENS_9allocatorIcEEEERNS_13basic_istreamIT_T0_EES9_RNS_12basic_stringIS6_S7_T1_EE
Ltmp731:
	movq	%rax, -1672(%rbp)       ## 8-byte Spill
	jmp	LBB40_30
LBB40_30:                               ##   in Loop: Header=BB40_25 Depth=1
	movl	-976(%rbp), %eax
	addl	$1, %eax
	movl	%eax, -976(%rbp)
	jmp	LBB40_25
LBB40_31:
Ltmp724:
	movl	%edx, %ecx
	movq	%rax, -1648(%rbp)       ## 8-byte Spill
	movl	%ecx, -1652(%rbp)       ## 4-byte Spill
LBB40_32:                               ## %.body
	movl	-1652(%rbp), %eax       ## 4-byte Reload
	movq	-1648(%rbp), %rcx       ## 8-byte Reload
	movq	%rcx, -968(%rbp)
	movl	%eax, -972(%rbp)
	jmp	LBB40_110
LBB40_33:
Ltmp732:
	movl	%edx, %ecx
	movq	%rax, -1680(%rbp)       ## 8-byte Spill
	movl	%ecx, -1684(%rbp)       ## 4-byte Spill
LBB40_34:                               ## %.body8
	movl	-1684(%rbp), %eax       ## 4-byte Reload
	movq	-1680(%rbp), %rcx       ## 8-byte Reload
	movq	%rcx, -968(%rbp)
	movl	%eax, -972(%rbp)
	jmp	LBB40_104
LBB40_35:
	leaq	-1536(%rbp), %rax
	movq	%rax, -376(%rbp)
	movl	$24, -380(%rbp)
	movq	-376(%rbp), %rax
	movq	%rax, %rcx
	subq	$-128, %rcx
	movq	%rcx, -368(%rbp)
	movq	%rcx, -360(%rbp)
	movq	__ZTVNSt3__18ios_baseE@GOTPCREL(%rip), %rcx
	addq	$16, %rcx
	movq	%rcx, 128(%rax)
	movq	__ZTVNSt3__19basic_iosIcNS_11char_traitsIcEEEE@GOTPCREL(%rip), %rcx
	addq	$16, %rcx
	movq	%rcx, 128(%rax)
	movq	__ZTVNSt3__118basic_stringstreamIcNS_11char_traitsIcEENS_9allocatorIcEEEE@GOTPCREL(%rip), %rcx
	movq	%rcx, %rdx
	addq	$24, %rdx
	movq	%rdx, (%rax)
	movq	%rcx, %rdx
	addq	$104, %rdx
	movq	%rdx, 128(%rax)
	addq	$64, %rcx
	movq	%rcx, 16(%rax)
	movq	%rax, %rcx
	addq	$24, %rcx
	movq	%rax, -320(%rbp)
	movq	__ZTTNSt3__118basic_stringstreamIcNS_11char_traitsIcEENS_9allocatorIcEEEE@GOTPCREL(%rip), %rdx
	addq	$8, %rdx
	movq	%rdx, -328(%rbp)
	movq	%rcx, -336(%rbp)
	movq	-320(%rbp), %rdx
	movq	-328(%rbp), %rsi
	movq	%rsi, %rdi
	addq	$8, %rdi
	movq	%rdx, -296(%rbp)
	movq	%rdi, -304(%rbp)
	movq	%rcx, -312(%rbp)
	movq	-296(%rbp), %rcx
	movq	-304(%rbp), %rdi
	movq	(%rdi), %r8
	movq	%r8, (%rcx)
	movq	8(%rdi), %rdi
	movq	-24(%r8), %r8
	movq	%rdi, (%rcx,%r8)
	movq	$0, 8(%rcx)
	movq	(%rcx), %rdi
	movq	-24(%rdi), %rdi
	addq	%rdi, %rcx
	movq	-312(%rbp), %rdi
	movq	%rcx, -280(%rbp)
	movq	%rdi, -288(%rbp)
	movq	-280(%rbp), %rcx
Ltmp623:
	movq	%rdi, -1696(%rbp)       ## 8-byte Spill
	movq	%rcx, %rdi
	movq	-1696(%rbp), %r8        ## 8-byte Reload
	movq	%rsi, -1704(%rbp)       ## 8-byte Spill
	movq	%r8, %rsi
	movq	%rax, -1712(%rbp)       ## 8-byte Spill
	movq	%rdx, -1720(%rbp)       ## 8-byte Spill
	movq	%rcx, -1728(%rbp)       ## 8-byte Spill
	callq	__ZNSt3__18ios_base4initEPv
Ltmp624:
	jmp	LBB40_36
LBB40_36:                               ## %_ZNSt3__114basic_iostreamIcNS_11char_traitsIcEEEC2EPNS_15basic_streambufIcS2_EE.exit.i3
	movq	-1728(%rbp), %rax       ## 8-byte Reload
	movq	$0, 136(%rax)
	movl	$-1, 144(%rax)
	movq	-1720(%rbp), %rcx       ## 8-byte Reload
	addq	$16, %rcx
	movq	-1704(%rbp), %rdx       ## 8-byte Reload
	addq	$24, %rdx
	movq	%rcx, -264(%rbp)
	movq	%rdx, -272(%rbp)
	movq	-264(%rbp), %rcx
	movq	-1704(%rbp), %rdx       ## 8-byte Reload
	movq	24(%rdx), %rsi
	movq	%rsi, (%rcx)
	movq	32(%rdx), %rdi
	movq	-24(%rsi), %rsi
	movq	%rdi, (%rcx,%rsi)
	movq	(%rdx), %rcx
	movq	-1720(%rbp), %rsi       ## 8-byte Reload
	movq	%rcx, (%rsi)
	movq	40(%rdx), %rdi
	movq	-24(%rcx), %rcx
	movq	%rdi, (%rsi,%rcx)
	movq	48(%rdx), %rcx
	movq	%rcx, 16(%rsi)
	movq	__ZTVNSt3__118basic_stringstreamIcNS_11char_traitsIcEENS_9allocatorIcEEEE@GOTPCREL(%rip), %rcx
	movq	%rcx, %rdi
	addq	$24, %rdi
	movq	-1712(%rbp), %r8        ## 8-byte Reload
	movq	%rdi, (%r8)
	movq	%rcx, %rdi
	addq	$104, %rdi
	movq	%rdi, 128(%r8)
	addq	$64, %rcx
	movq	%rcx, 16(%r8)
	addq	$24, %r8
	movl	-380(%rbp), %r9d
	movq	%r8, -248(%rbp)
	movl	%r9d, -252(%rbp)
	movq	-248(%rbp), %rcx
	movq	%rcx, -192(%rbp)
	movl	%r9d, -196(%rbp)
	movq	-192(%rbp), %rcx
Ltmp626:
	movq	%rcx, %rdi
	movq	%rcx, -1736(%rbp)       ## 8-byte Spill
	callq	__ZNSt3__115basic_streambufIcNS_11char_traitsIcEEEC2Ev
Ltmp627:
	jmp	LBB40_37
LBB40_37:                               ## %.noexc.i4
	movq	__ZTVNSt3__115basic_stringbufIcNS_11char_traitsIcEENS_9allocatorIcEEEE@GOTPCREL(%rip), %rax
	addq	$16, %rax
	movq	-1736(%rbp), %rcx       ## 8-byte Reload
	movq	%rax, (%rcx)
	addq	$64, %rcx
	movq	%rcx, -184(%rbp)
	movq	-184(%rbp), %rax
	movq	%rax, -176(%rbp)
	movq	-176(%rbp), %rax
	movq	%rax, -168(%rbp)
	movq	-168(%rbp), %rdx
	movq	%rdx, -160(%rbp)
	movq	-160(%rbp), %rdx
	movq	%rdx, -152(%rbp)
	movq	-152(%rbp), %rdx
	movq	%rdx, -144(%rbp)
	movq	%rax, -120(%rbp)
	movq	-120(%rbp), %rax
	movq	%rax, -112(%rbp)
	movq	-112(%rbp), %rax
	movq	%rax, -104(%rbp)
	movq	-104(%rbp), %rax
	movq	%rax, -128(%rbp)
	movl	$0, -132(%rbp)
	movq	%rcx, -1744(%rbp)       ## 8-byte Spill
LBB40_38:                               ## =>This Inner Loop Header: Depth=1
	cmpl	$3, -132(%rbp)
	jae	LBB40_40
## BB#39:                               ##   in Loop: Header=BB40_38 Depth=1
	movl	-132(%rbp), %eax
	movl	%eax, %ecx
	movq	-128(%rbp), %rdx
	movq	$0, (%rdx,%rcx,8)
	movl	-132(%rbp), %eax
	addl	$1, %eax
	movl	%eax, -132(%rbp)
	jmp	LBB40_38
LBB40_40:                               ## %_ZNSt3__112basic_stringIcNS_11char_traitsIcEENS_9allocatorIcEEEC1Ev.exit.i.i.i5
	leaq	-240(%rbp), %rax
	movq	-1736(%rbp), %rcx       ## 8-byte Reload
	movq	$0, 88(%rcx)
	movl	-196(%rbp), %edx
	movl	%edx, 96(%rcx)
	movq	%rax, -96(%rbp)
	movq	-96(%rbp), %rax
	movq	%rax, -88(%rbp)
	movq	-88(%rbp), %rax
	movq	%rax, -80(%rbp)
	movq	-80(%rbp), %rsi
	movq	%rsi, -72(%rbp)
	movq	-72(%rbp), %rsi
	movq	%rsi, -64(%rbp)
	movq	-64(%rbp), %rsi
	movq	%rsi, -56(%rbp)
	movq	%rax, -32(%rbp)
	movq	-32(%rbp), %rax
	movq	%rax, -24(%rbp)
	movq	-24(%rbp), %rax
	movq	%rax, -16(%rbp)
	movq	-16(%rbp), %rax
	movq	%rax, -40(%rbp)
	movl	$0, -44(%rbp)
LBB40_41:                               ## =>This Inner Loop Header: Depth=1
	cmpl	$3, -44(%rbp)
	jae	LBB40_43
## BB#42:                               ##   in Loop: Header=BB40_41 Depth=1
	movl	-44(%rbp), %eax
	movl	%eax, %ecx
	movq	-40(%rbp), %rdx
	movq	$0, (%rdx,%rcx,8)
	movl	-44(%rbp), %eax
	addl	$1, %eax
	movl	%eax, -44(%rbp)
	jmp	LBB40_41
LBB40_43:                               ## %_ZNSt3__112basic_stringIcNS_11char_traitsIcEENS_9allocatorIcEEEC1Ev.exit3.i.i.i
Ltmp629:
	leaq	-240(%rbp), %rsi
	movq	-1736(%rbp), %rdi       ## 8-byte Reload
	callq	__ZNSt3__115basic_stringbufIcNS_11char_traitsIcEENS_9allocatorIcEEE3strERKNS_12basic_stringIcS2_S4_EE
Ltmp630:
	jmp	LBB40_44
LBB40_44:
Ltmp634:
	leaq	-240(%rbp), %rdi
	callq	__ZNSt3__112basic_stringIcNS_11char_traitsIcEENS_9allocatorIcEEED1Ev
Ltmp635:
	jmp	LBB40_59
LBB40_45:
Ltmp636:
	movl	%edx, %ecx
	movq	%rax, -208(%rbp)
	movl	%ecx, -212(%rbp)
	jmp	LBB40_48
LBB40_46:
Ltmp631:
	movl	%edx, %ecx
	movq	%rax, -208(%rbp)
	movl	%ecx, -212(%rbp)
Ltmp632:
	leaq	-240(%rbp), %rdi
	callq	__ZNSt3__112basic_stringIcNS_11char_traitsIcEENS_9allocatorIcEEED1Ev
Ltmp633:
	jmp	LBB40_47
LBB40_47:
	jmp	LBB40_48
LBB40_48:
Ltmp637:
	movq	-1744(%rbp), %rdi       ## 8-byte Reload
	callq	__ZNSt3__112basic_stringIcNS_11char_traitsIcEENS_9allocatorIcEEED1Ev
Ltmp638:
	jmp	LBB40_49
LBB40_49:
Ltmp639:
	movq	-1736(%rbp), %rdi       ## 8-byte Reload
	callq	__ZNSt3__115basic_streambufIcNS_11char_traitsIcEEED2Ev
Ltmp640:
	jmp	LBB40_50
LBB40_50:
	movq	-208(%rbp), %rax
	movl	-212(%rbp), %ecx
	movq	%rax, -1752(%rbp)       ## 8-byte Spill
	movl	%ecx, -1756(%rbp)       ## 4-byte Spill
	jmp	LBB40_54
LBB40_51:
Ltmp641:
	movl	%edx, %ecx
	movq	%rax, %rdi
	movl	%ecx, -1760(%rbp)       ## 4-byte Spill
	callq	___clang_call_terminate
LBB40_52:
Ltmp625:
	movl	%edx, %ecx
	movq	%rax, -392(%rbp)
	movl	%ecx, -396(%rbp)
	jmp	LBB40_56
LBB40_53:
Ltmp628:
	movl	%edx, %ecx
	movq	%rax, -1752(%rbp)       ## 8-byte Spill
	movl	%ecx, -1756(%rbp)       ## 4-byte Spill
LBB40_54:                               ## %.body.i7
	movl	-1756(%rbp), %eax       ## 4-byte Reload
	movq	-1752(%rbp), %rcx       ## 8-byte Reload
	movq	%rcx, -392(%rbp)
	movl	%eax, -396(%rbp)
Ltmp642:
	movq	__ZTTNSt3__118basic_stringstreamIcNS_11char_traitsIcEENS_9allocatorIcEEEE@GOTPCREL(%rip), %rcx
	addq	$8, %rcx
	movq	-1712(%rbp), %rdi       ## 8-byte Reload
	movq	%rcx, %rsi
	callq	__ZNSt3__114basic_iostreamIcNS_11char_traitsIcEEED2Ev
Ltmp643:
	jmp	LBB40_55
LBB40_55:
	jmp	LBB40_56
LBB40_56:
	movq	-1712(%rbp), %rax       ## 8-byte Reload
	subq	$-128, %rax
Ltmp644:
	movq	%rax, %rdi
	callq	__ZNSt3__19basic_iosIcNS_11char_traitsIcEEED2Ev
Ltmp645:
	jmp	LBB40_57
LBB40_57:
	movq	-392(%rbp), %rax
	movl	-396(%rbp), %ecx
	movq	%rax, -1680(%rbp)       ## 8-byte Spill
	movl	%ecx, -1684(%rbp)       ## 4-byte Spill
	jmp	LBB40_34
LBB40_58:
Ltmp646:
	movl	%edx, %ecx
	movq	%rax, %rdi
	movl	%ecx, -1764(%rbp)       ## 4-byte Spill
	callq	___clang_call_terminate
LBB40_59:                               ## %_ZNSt3__118basic_stringstreamIcNS_11char_traitsIcEENS_9allocatorIcEEEC1Ej.exit
	jmp	LBB40_60
LBB40_60:
	leaq	-1520(%rbp), %rdi
Ltmp647:
	leaq	-960(%rbp), %rsi
	callq	__ZNSt3__1lsIcNS_11char_traitsIcEENS_9allocatorIcEEEERNS_13basic_ostreamIT_T0_EES9_RKNS_12basic_stringIS6_S7_T1_EE
Ltmp648:
	movq	%rax, -1776(%rbp)       ## 8-byte Spill
	jmp	LBB40_61
LBB40_61:
Ltmp649:
	movl	$32, %esi
	movq	-1776(%rbp), %rdi       ## 8-byte Reload
	callq	__ZNSt3__1lsINS_11char_traitsIcEEEERNS_13basic_ostreamIcT_EES6_c
Ltmp650:
	movq	%rax, -1784(%rbp)       ## 8-byte Spill
	jmp	LBB40_62
LBB40_62:
	leaq	-936(%rbp), %rsi
Ltmp651:
	movq	-1784(%rbp), %rdi       ## 8-byte Reload
	callq	__ZNSt3__1lsIcNS_11char_traitsIcEENS_9allocatorIcEEEERNS_13basic_ostreamIT_T0_EES9_RKNS_12basic_stringIS6_S7_T1_EE
Ltmp652:
	movq	%rax, -1792(%rbp)       ## 8-byte Spill
	jmp	LBB40_63
LBB40_63:
Ltmp653:
	movl	$32, %esi
	movq	-1792(%rbp), %rdi       ## 8-byte Reload
	callq	__ZNSt3__1lsINS_11char_traitsIcEEEERNS_13basic_ostreamIcT_EES6_c
Ltmp654:
	movq	%rax, -1800(%rbp)       ## 8-byte Spill
	jmp	LBB40_64
LBB40_64:
	leaq	-912(%rbp), %rsi
Ltmp655:
	movq	-1800(%rbp), %rdi       ## 8-byte Reload
	callq	__ZNSt3__1lsIcNS_11char_traitsIcEENS_9allocatorIcEEEERNS_13basic_ostreamIT_T0_EES9_RKNS_12basic_stringIS6_S7_T1_EE
Ltmp656:
	movq	%rax, -1808(%rbp)       ## 8-byte Spill
	jmp	LBB40_65
LBB40_65:
Ltmp657:
	movl	$32, %esi
	movq	-1808(%rbp), %rdi       ## 8-byte Reload
	callq	__ZNSt3__1lsINS_11char_traitsIcEEEERNS_13basic_ostreamIcT_EES6_c
Ltmp658:
	movq	%rax, -1816(%rbp)       ## 8-byte Spill
	jmp	LBB40_66
LBB40_66:
	leaq	-888(%rbp), %rsi
Ltmp659:
	movq	-1816(%rbp), %rdi       ## 8-byte Reload
	callq	__ZNSt3__1lsIcNS_11char_traitsIcEENS_9allocatorIcEEEERNS_13basic_ostreamIT_T0_EES9_RKNS_12basic_stringIS6_S7_T1_EE
Ltmp660:
	movq	%rax, -1824(%rbp)       ## 8-byte Spill
	jmp	LBB40_67
LBB40_67:
Ltmp661:
	movl	$32, %esi
	movq	-1824(%rbp), %rdi       ## 8-byte Reload
	callq	__ZNSt3__1lsINS_11char_traitsIcEEEERNS_13basic_ostreamIcT_EES6_c
Ltmp662:
	movq	%rax, -1832(%rbp)       ## 8-byte Spill
	jmp	LBB40_68
LBB40_68:
	leaq	-864(%rbp), %rsi
Ltmp663:
	movq	-1832(%rbp), %rdi       ## 8-byte Reload
	callq	__ZNSt3__1lsIcNS_11char_traitsIcEENS_9allocatorIcEEEERNS_13basic_ostreamIT_T0_EES9_RKNS_12basic_stringIS6_S7_T1_EE
Ltmp664:
	movq	%rax, -1840(%rbp)       ## 8-byte Spill
	jmp	LBB40_69
LBB40_69:
Ltmp665:
	movl	$32, %esi
	movq	-1840(%rbp), %rdi       ## 8-byte Reload
	callq	__ZNSt3__1lsINS_11char_traitsIcEEEERNS_13basic_ostreamIcT_EES6_c
Ltmp666:
	movq	%rax, -1848(%rbp)       ## 8-byte Spill
	jmp	LBB40_70
LBB40_70:
	leaq	-840(%rbp), %rsi
Ltmp667:
	movq	-1848(%rbp), %rdi       ## 8-byte Reload
	callq	__ZNSt3__1lsIcNS_11char_traitsIcEENS_9allocatorIcEEEERNS_13basic_ostreamIT_T0_EES9_RKNS_12basic_stringIS6_S7_T1_EE
Ltmp668:
	movq	%rax, -1856(%rbp)       ## 8-byte Spill
	jmp	LBB40_71
LBB40_71:
Ltmp669:
	leaq	-1536(%rbp), %rdi
	movq	-1560(%rbp), %rsi       ## 8-byte Reload
	callq	__ZNSt3__113basic_istreamIcNS_11char_traitsIcEEErsERi
Ltmp670:
	movq	%rax, -1864(%rbp)       ## 8-byte Spill
	jmp	LBB40_72
LBB40_72:
	movq	-1560(%rbp), %rax       ## 8-byte Reload
	addq	$4, %rax
Ltmp671:
	movq	-1864(%rbp), %rdi       ## 8-byte Reload
	movq	%rax, %rsi
	callq	__ZNSt3__113basic_istreamIcNS_11char_traitsIcEEErsERi
Ltmp672:
	movq	%rax, -1872(%rbp)       ## 8-byte Spill
	jmp	LBB40_73
LBB40_73:
	movq	-1560(%rbp), %rax       ## 8-byte Reload
	addq	$8, %rax
Ltmp673:
	movq	-1872(%rbp), %rdi       ## 8-byte Reload
	movq	%rax, %rsi
	callq	__ZNSt3__113basic_istreamIcNS_11char_traitsIcEEErsERi
Ltmp674:
	movq	%rax, -1880(%rbp)       ## 8-byte Spill
	jmp	LBB40_74
LBB40_74:
	movq	-1560(%rbp), %rax       ## 8-byte Reload
	addq	$12, %rax
Ltmp675:
	movq	-1880(%rbp), %rdi       ## 8-byte Reload
	movq	%rax, %rsi
	callq	__ZNSt3__113basic_istreamIcNS_11char_traitsIcEEErsERi
Ltmp676:
	movq	%rax, -1888(%rbp)       ## 8-byte Spill
	jmp	LBB40_75
LBB40_75:
	movq	-1560(%rbp), %rax       ## 8-byte Reload
	addq	$16, %rax
Ltmp677:
	movq	-1888(%rbp), %rdi       ## 8-byte Reload
	movq	%rax, %rsi
	callq	__ZNSt3__113basic_istreamIcNS_11char_traitsIcEEErsERi
Ltmp678:
	movq	%rax, -1896(%rbp)       ## 8-byte Spill
	jmp	LBB40_76
LBB40_76:
	movq	-1560(%rbp), %rax       ## 8-byte Reload
	addq	$20, %rax
Ltmp679:
	movq	-1896(%rbp), %rdi       ## 8-byte Reload
	movq	%rax, %rsi
	callq	__ZNSt3__113basic_istreamIcNS_11char_traitsIcEEErsERi
Ltmp680:
	movq	%rax, -1904(%rbp)       ## 8-byte Spill
	jmp	LBB40_77
LBB40_77:
Ltmp681:
	movq	__ZNSt3__14coutE@GOTPCREL(%rip), %rdi
	leaq	L_.str5(%rip), %rsi
	callq	__ZNSt3__1lsINS_11char_traitsIcEEEERNS_13basic_ostreamIcT_EES6_PKc
Ltmp682:
	movq	%rax, -1912(%rbp)       ## 8-byte Spill
	jmp	LBB40_78
LBB40_78:
	movq	-1560(%rbp), %rax       ## 8-byte Reload
	movl	(%rax), %esi
Ltmp683:
	movq	-1912(%rbp), %rdi       ## 8-byte Reload
	callq	__ZNSt3__113basic_ostreamIcNS_11char_traitsIcEEElsEi
Ltmp684:
	movq	%rax, -1920(%rbp)       ## 8-byte Spill
	jmp	LBB40_79
LBB40_79:
Ltmp685:
	leaq	L_.str2(%rip), %rsi
	movq	-1920(%rbp), %rdi       ## 8-byte Reload
	callq	__ZNSt3__1lsINS_11char_traitsIcEEEERNS_13basic_ostreamIcT_EES6_PKc
Ltmp686:
	movq	%rax, -1928(%rbp)       ## 8-byte Spill
	jmp	LBB40_80
LBB40_80:
Ltmp687:
	movq	__ZNSt3__14coutE@GOTPCREL(%rip), %rdi
	leaq	L_.str6(%rip), %rsi
	callq	__ZNSt3__1lsINS_11char_traitsIcEEEERNS_13basic_ostreamIcT_EES6_PKc
Ltmp688:
	movq	%rax, -1936(%rbp)       ## 8-byte Spill
	jmp	LBB40_81
LBB40_81:
	movq	-1560(%rbp), %rax       ## 8-byte Reload
	movl	4(%rax), %esi
Ltmp689:
	movq	-1936(%rbp), %rdi       ## 8-byte Reload
	callq	__ZNSt3__113basic_ostreamIcNS_11char_traitsIcEEElsEi
Ltmp690:
	movq	%rax, -1944(%rbp)       ## 8-byte Spill
	jmp	LBB40_82
LBB40_82:
Ltmp691:
	leaq	L_.str2(%rip), %rsi
	movq	-1944(%rbp), %rdi       ## 8-byte Reload
	callq	__ZNSt3__1lsINS_11char_traitsIcEEEERNS_13basic_ostreamIcT_EES6_PKc
Ltmp692:
	movq	%rax, -1952(%rbp)       ## 8-byte Spill
	jmp	LBB40_83
LBB40_83:
Ltmp693:
	movq	__ZNSt3__14coutE@GOTPCREL(%rip), %rdi
	leaq	L_.str7(%rip), %rsi
	callq	__ZNSt3__1lsINS_11char_traitsIcEEEERNS_13basic_ostreamIcT_EES6_PKc
Ltmp694:
	movq	%rax, -1960(%rbp)       ## 8-byte Spill
	jmp	LBB40_84
LBB40_84:
	movq	-1560(%rbp), %rax       ## 8-byte Reload
	movl	8(%rax), %esi
Ltmp695:
	movq	-1960(%rbp), %rdi       ## 8-byte Reload
	callq	__ZNSt3__113basic_ostreamIcNS_11char_traitsIcEEElsEi
Ltmp696:
	movq	%rax, -1968(%rbp)       ## 8-byte Spill
	jmp	LBB40_85
LBB40_85:
Ltmp697:
	leaq	L_.str2(%rip), %rsi
	movq	-1968(%rbp), %rdi       ## 8-byte Reload
	callq	__ZNSt3__1lsINS_11char_traitsIcEEEERNS_13basic_ostreamIcT_EES6_PKc
Ltmp698:
	movq	%rax, -1976(%rbp)       ## 8-byte Spill
	jmp	LBB40_86
LBB40_86:
Ltmp699:
	movq	__ZNSt3__14coutE@GOTPCREL(%rip), %rdi
	leaq	L_.str8(%rip), %rsi
	callq	__ZNSt3__1lsINS_11char_traitsIcEEEERNS_13basic_ostreamIcT_EES6_PKc
Ltmp700:
	movq	%rax, -1984(%rbp)       ## 8-byte Spill
	jmp	LBB40_87
LBB40_87:
	movq	-1560(%rbp), %rax       ## 8-byte Reload
	movl	12(%rax), %esi
Ltmp701:
	movq	-1984(%rbp), %rdi       ## 8-byte Reload
	callq	__ZNSt3__113basic_ostreamIcNS_11char_traitsIcEEElsEi
Ltmp702:
	movq	%rax, -1992(%rbp)       ## 8-byte Spill
	jmp	LBB40_88
LBB40_88:
Ltmp703:
	leaq	L_.str2(%rip), %rsi
	movq	-1992(%rbp), %rdi       ## 8-byte Reload
	callq	__ZNSt3__1lsINS_11char_traitsIcEEEERNS_13basic_ostreamIcT_EES6_PKc
Ltmp704:
	movq	%rax, -2000(%rbp)       ## 8-byte Spill
	jmp	LBB40_89
LBB40_89:
Ltmp705:
	movq	__ZNSt3__14coutE@GOTPCREL(%rip), %rdi
	leaq	L_.str9(%rip), %rsi
	callq	__ZNSt3__1lsINS_11char_traitsIcEEEERNS_13basic_ostreamIcT_EES6_PKc
Ltmp706:
	movq	%rax, -2008(%rbp)       ## 8-byte Spill
	jmp	LBB40_90
LBB40_90:
	movq	-1560(%rbp), %rax       ## 8-byte Reload
	movl	16(%rax), %esi
Ltmp707:
	movq	-2008(%rbp), %rdi       ## 8-byte Reload
	callq	__ZNSt3__113basic_ostreamIcNS_11char_traitsIcEEElsEi
Ltmp708:
	movq	%rax, -2016(%rbp)       ## 8-byte Spill
	jmp	LBB40_91
LBB40_91:
Ltmp709:
	leaq	L_.str2(%rip), %rsi
	movq	-2016(%rbp), %rdi       ## 8-byte Reload
	callq	__ZNSt3__1lsINS_11char_traitsIcEEEERNS_13basic_ostreamIcT_EES6_PKc
Ltmp710:
	movq	%rax, -2024(%rbp)       ## 8-byte Spill
	jmp	LBB40_92
LBB40_92:
Ltmp711:
	movq	__ZNSt3__14coutE@GOTPCREL(%rip), %rdi
	leaq	L_.str10(%rip), %rsi
	callq	__ZNSt3__1lsINS_11char_traitsIcEEEERNS_13basic_ostreamIcT_EES6_PKc
Ltmp712:
	movq	%rax, -2032(%rbp)       ## 8-byte Spill
	jmp	LBB40_93
LBB40_93:
	movq	-1560(%rbp), %rax       ## 8-byte Reload
	movl	20(%rax), %esi
Ltmp713:
	movq	-2032(%rbp), %rdi       ## 8-byte Reload
	callq	__ZNSt3__113basic_ostreamIcNS_11char_traitsIcEEElsEi
Ltmp714:
	movq	%rax, -2040(%rbp)       ## 8-byte Spill
	jmp	LBB40_94
LBB40_94:
Ltmp715:
	leaq	L_.str2(%rip), %rsi
	movq	-2040(%rbp), %rdi       ## 8-byte Reload
	callq	__ZNSt3__1lsINS_11char_traitsIcEEEERNS_13basic_ostreamIcT_EES6_PKc
Ltmp716:
	movq	%rax, -2048(%rbp)       ## 8-byte Spill
	jmp	LBB40_95
LBB40_95:
Ltmp720:
	leaq	-1536(%rbp), %rdi
	callq	__ZNSt3__118basic_stringstreamIcNS_11char_traitsIcEENS_9allocatorIcEEED1Ev
Ltmp721:
	jmp	LBB40_96
LBB40_96:
Ltmp722:
	leaq	-1256(%rbp), %rdi
	callq	__ZNSt3__118basic_stringstreamIcNS_11char_traitsIcEENS_9allocatorIcEEED1Ev
Ltmp723:
	jmp	LBB40_97
LBB40_97:
	leaq	-960(%rbp), %rax
	movq	%rax, %rcx
	addq	$144, %rcx
	movq	%rax, -2056(%rbp)       ## 8-byte Spill
	movq	%rcx, -2064(%rbp)       ## 8-byte Spill
LBB40_98:                               ## =>This Inner Loop Header: Depth=1
	movq	-2064(%rbp), %rax       ## 8-byte Reload
	addq	$-24, %rax
Ltmp725:
	movq	%rax, %rdi
	movq	%rax, -2072(%rbp)       ## 8-byte Spill
	callq	__ZNSt3__112basic_stringIcNS_11char_traitsIcEENS_9allocatorIcEEED1Ev
Ltmp726:
	jmp	LBB40_99
LBB40_99:                               ##   in Loop: Header=BB40_98 Depth=1
	movq	-2072(%rbp), %rax       ## 8-byte Reload
	movq	-2056(%rbp), %rcx       ## 8-byte Reload
	cmpq	%rcx, %rax
	movq	%rax, -2064(%rbp)       ## 8-byte Spill
	jne	LBB40_98
## BB#100:
	movq	___stack_chk_guard@GOTPCREL(%rip), %rax
	movq	(%rax), %rax
	cmpq	-8(%rbp), %rax
	jne	LBB40_116
## BB#101:                              ## %SP_return
	addq	$2128, %rsp             ## imm = 0x850
	popq	%rbp
	ret
LBB40_102:
Ltmp717:
	movl	%edx, %ecx
	movq	%rax, -968(%rbp)
	movl	%ecx, -972(%rbp)
Ltmp718:
	leaq	-1536(%rbp), %rdi
	callq	__ZNSt3__118basic_stringstreamIcNS_11char_traitsIcEENS_9allocatorIcEEED1Ev
Ltmp719:
	jmp	LBB40_103
LBB40_103:
	jmp	LBB40_104
LBB40_104:
Ltmp733:
	leaq	-1256(%rbp), %rdi
	callq	__ZNSt3__118basic_stringstreamIcNS_11char_traitsIcEENS_9allocatorIcEEED1Ev
Ltmp734:
	jmp	LBB40_105
LBB40_105:
	jmp	LBB40_110
LBB40_106:
Ltmp727:
	movl	%edx, %ecx
	movq	%rax, -968(%rbp)
	movl	%ecx, -972(%rbp)
	movq	-2056(%rbp), %rax       ## 8-byte Reload
	movq	-2072(%rbp), %rdx       ## 8-byte Reload
	cmpq	%rdx, %rax
	movq	%rdx, -2080(%rbp)       ## 8-byte Spill
	je	LBB40_109
LBB40_107:                              ## =>This Inner Loop Header: Depth=1
	movq	-2080(%rbp), %rax       ## 8-byte Reload
	addq	$-24, %rax
Ltmp728:
	movq	%rax, %rdi
	movq	%rax, -2088(%rbp)       ## 8-byte Spill
	callq	__ZNSt3__112basic_stringIcNS_11char_traitsIcEENS_9allocatorIcEEED1Ev
Ltmp729:
	jmp	LBB40_108
LBB40_108:                              ##   in Loop: Header=BB40_107 Depth=1
	movq	-2088(%rbp), %rax       ## 8-byte Reload
	movq	-2056(%rbp), %rcx       ## 8-byte Reload
	cmpq	%rcx, %rax
	movq	%rax, -2080(%rbp)       ## 8-byte Spill
	jne	LBB40_107
LBB40_109:
	jmp	LBB40_114
LBB40_110:
	leaq	-960(%rbp), %rax
	movq	%rax, %rcx
	addq	$144, %rcx
	movq	%rax, -2096(%rbp)       ## 8-byte Spill
	movq	%rcx, -2104(%rbp)       ## 8-byte Spill
LBB40_111:                              ## =>This Inner Loop Header: Depth=1
	movq	-2104(%rbp), %rax       ## 8-byte Reload
	addq	$-24, %rax
Ltmp735:
	movq	%rax, %rdi
	movq	%rax, -2112(%rbp)       ## 8-byte Spill
	callq	__ZNSt3__112basic_stringIcNS_11char_traitsIcEENS_9allocatorIcEEED1Ev
Ltmp736:
	jmp	LBB40_112
LBB40_112:                              ##   in Loop: Header=BB40_111 Depth=1
	movq	-2112(%rbp), %rax       ## 8-byte Reload
	movq	-2096(%rbp), %rcx       ## 8-byte Reload
	cmpq	%rcx, %rax
	movq	%rax, -2104(%rbp)       ## 8-byte Spill
	jne	LBB40_111
## BB#113:
	jmp	LBB40_114
LBB40_114:
	movq	-968(%rbp), %rdi
	callq	__Unwind_Resume
LBB40_115:
Ltmp737:
	movl	%edx, %ecx
	movq	%rax, %rdi
	movl	%ecx, -2116(%rbp)       ## 4-byte Spill
	callq	___clang_call_terminate
LBB40_116:                              ## %CallStackCheckFailBlk
	callq	___stack_chk_fail
	.cfi_endproc
Leh_func_end40:
	.section	__TEXT,__gcc_except_tab
	.align	2
GCC_except_table40:
Lexception40:
	.byte	255                     ## @LPStart Encoding = omit
	.byte	155                     ## @TType Encoding = indirect pcrel sdata4
	.asciz	"\367\201"              ## @TType base offset
	.byte	3                       ## Call site Encoding = udata4
	.ascii	"\352\001"              ## Call site table length
Lset294 = Ltmp604-Leh_func_begin40      ## >> Call Site 1 <<
	.long	Lset294
Lset295 = Ltmp605-Ltmp604               ##   Call between Ltmp604 and Ltmp605
	.long	Lset295
Lset296 = Ltmp606-Leh_func_begin40      ##     jumps to Ltmp606
	.long	Lset296
	.byte	0                       ##   On action: cleanup
Lset297 = Ltmp607-Leh_func_begin40      ## >> Call Site 2 <<
	.long	Lset297
Lset298 = Ltmp608-Ltmp607               ##   Call between Ltmp607 and Ltmp608
	.long	Lset298
Lset299 = Ltmp609-Leh_func_begin40      ##     jumps to Ltmp609
	.long	Lset299
	.byte	0                       ##   On action: cleanup
Lset300 = Ltmp610-Leh_func_begin40      ## >> Call Site 3 <<
	.long	Lset300
Lset301 = Ltmp611-Ltmp610               ##   Call between Ltmp610 and Ltmp611
	.long	Lset301
Lset302 = Ltmp612-Leh_func_begin40      ##     jumps to Ltmp612
	.long	Lset302
	.byte	0                       ##   On action: cleanup
Lset303 = Ltmp613-Leh_func_begin40      ## >> Call Site 4 <<
	.long	Lset303
Lset304 = Ltmp616-Ltmp613               ##   Call between Ltmp613 and Ltmp616
	.long	Lset304
Lset305 = Ltmp617-Leh_func_begin40      ##     jumps to Ltmp617
	.long	Lset305
	.byte	3                       ##   On action: 2
Lset306 = Ltmp618-Leh_func_begin40      ## >> Call Site 5 <<
	.long	Lset306
Lset307 = Ltmp621-Ltmp618               ##   Call between Ltmp618 and Ltmp621
	.long	Lset307
Lset308 = Ltmp622-Leh_func_begin40      ##     jumps to Ltmp622
	.long	Lset308
	.byte	3                       ##   On action: 2
Lset309 = Ltmp730-Leh_func_begin40      ## >> Call Site 6 <<
	.long	Lset309
Lset310 = Ltmp731-Ltmp730               ##   Call between Ltmp730 and Ltmp731
	.long	Lset310
Lset311 = Ltmp732-Leh_func_begin40      ##     jumps to Ltmp732
	.long	Lset311
	.byte	0                       ##   On action: cleanup
Lset312 = Ltmp623-Leh_func_begin40      ## >> Call Site 7 <<
	.long	Lset312
Lset313 = Ltmp624-Ltmp623               ##   Call between Ltmp623 and Ltmp624
	.long	Lset313
Lset314 = Ltmp625-Leh_func_begin40      ##     jumps to Ltmp625
	.long	Lset314
	.byte	0                       ##   On action: cleanup
Lset315 = Ltmp626-Leh_func_begin40      ## >> Call Site 8 <<
	.long	Lset315
Lset316 = Ltmp627-Ltmp626               ##   Call between Ltmp626 and Ltmp627
	.long	Lset316
Lset317 = Ltmp628-Leh_func_begin40      ##     jumps to Ltmp628
	.long	Lset317
	.byte	0                       ##   On action: cleanup
Lset318 = Ltmp629-Leh_func_begin40      ## >> Call Site 9 <<
	.long	Lset318
Lset319 = Ltmp630-Ltmp629               ##   Call between Ltmp629 and Ltmp630
	.long	Lset319
Lset320 = Ltmp631-Leh_func_begin40      ##     jumps to Ltmp631
	.long	Lset320
	.byte	0                       ##   On action: cleanup
Lset321 = Ltmp634-Leh_func_begin40      ## >> Call Site 10 <<
	.long	Lset321
Lset322 = Ltmp635-Ltmp634               ##   Call between Ltmp634 and Ltmp635
	.long	Lset322
Lset323 = Ltmp636-Leh_func_begin40      ##     jumps to Ltmp636
	.long	Lset323
	.byte	0                       ##   On action: cleanup
Lset324 = Ltmp632-Leh_func_begin40      ## >> Call Site 11 <<
	.long	Lset324
Lset325 = Ltmp640-Ltmp632               ##   Call between Ltmp632 and Ltmp640
	.long	Lset325
Lset326 = Ltmp641-Leh_func_begin40      ##     jumps to Ltmp641
	.long	Lset326
	.byte	3                       ##   On action: 2
Lset327 = Ltmp642-Leh_func_begin40      ## >> Call Site 12 <<
	.long	Lset327
Lset328 = Ltmp645-Ltmp642               ##   Call between Ltmp642 and Ltmp645
	.long	Lset328
Lset329 = Ltmp646-Leh_func_begin40      ##     jumps to Ltmp646
	.long	Lset329
	.byte	3                       ##   On action: 2
Lset330 = Ltmp647-Leh_func_begin40      ## >> Call Site 13 <<
	.long	Lset330
Lset331 = Ltmp716-Ltmp647               ##   Call between Ltmp647 and Ltmp716
	.long	Lset331
Lset332 = Ltmp717-Leh_func_begin40      ##     jumps to Ltmp717
	.long	Lset332
	.byte	0                       ##   On action: cleanup
Lset333 = Ltmp720-Leh_func_begin40      ## >> Call Site 14 <<
	.long	Lset333
Lset334 = Ltmp721-Ltmp720               ##   Call between Ltmp720 and Ltmp721
	.long	Lset334
Lset335 = Ltmp732-Leh_func_begin40      ##     jumps to Ltmp732
	.long	Lset335
	.byte	0                       ##   On action: cleanup
Lset336 = Ltmp722-Leh_func_begin40      ## >> Call Site 15 <<
	.long	Lset336
Lset337 = Ltmp723-Ltmp722               ##   Call between Ltmp722 and Ltmp723
	.long	Lset337
Lset338 = Ltmp724-Leh_func_begin40      ##     jumps to Ltmp724
	.long	Lset338
	.byte	0                       ##   On action: cleanup
Lset339 = Ltmp725-Leh_func_begin40      ## >> Call Site 16 <<
	.long	Lset339
Lset340 = Ltmp726-Ltmp725               ##   Call between Ltmp725 and Ltmp726
	.long	Lset340
Lset341 = Ltmp727-Leh_func_begin40      ##     jumps to Ltmp727
	.long	Lset341
	.byte	0                       ##   On action: cleanup
Lset342 = Ltmp718-Leh_func_begin40      ## >> Call Site 17 <<
	.long	Lset342
Lset343 = Ltmp736-Ltmp718               ##   Call between Ltmp718 and Ltmp736
	.long	Lset343
Lset344 = Ltmp737-Leh_func_begin40      ##     jumps to Ltmp737
	.long	Lset344
	.byte	5                       ##   On action: 3
Lset345 = Ltmp736-Leh_func_begin40      ## >> Call Site 18 <<
	.long	Lset345
Lset346 = Leh_func_end40-Ltmp736        ##   Call between Ltmp736 and Leh_func_end40
	.long	Lset346
	.long	0                       ##     has no landing pad
	.byte	0                       ##   On action: cleanup
	.byte	0                       ## >> Action Record 1 <<
                                        ##   Cleanup
	.byte	0                       ##   No further actions
	.byte	1                       ## >> Action Record 2 <<
                                        ##   Catch TypeInfo 1
	.byte	125                     ##   Continue to action 1
	.byte	1                       ## >> Action Record 3 <<
                                        ##   Catch TypeInfo 1
	.byte	0                       ##   No further actions
                                        ## >> Catch TypeInfos <<
	.long	0                       ## TypeInfo 1
	.align	2

	.section	__TEXT,__textcoal_nt,coalesced,pure_instructions
	.globl	__ZNSt3__1rsIcNS_11char_traitsIcEENS_9allocatorIcEEEERNS_13basic_istreamIT_T0_EES9_RNS_12basic_stringIS6_S7_T1_EE
	.weak_def_can_be_hidden	__ZNSt3__1rsIcNS_11char_traitsIcEENS_9allocatorIcEEEERNS_13basic_istreamIT_T0_EES9_RNS_12basic_stringIS6_S7_T1_EE
	.align	4, 0x90
__ZNSt3__1rsIcNS_11char_traitsIcEENS_9allocatorIcEEEERNS_13basic_istreamIT_T0_EES9_RNS_12basic_stringIS6_S7_T1_EE: ## @_ZNSt3__1rsIcNS_11char_traitsIcEENS_9allocatorIcEEEERNS_13basic_istreamIT_T0_EES9_RNS_12basic_stringIS6_S7_T1_EE
	.cfi_startproc
	.cfi_personality 155, ___gxx_personality_v0
Leh_func_begin41:
	.cfi_lsda 16, Lexception41
## BB#0:
	pushq	%rbp
Ltmp773:
	.cfi_def_cfa_offset 16
Ltmp774:
	.cfi_offset %rbp, -16
	movq	%rsp, %rbp
Ltmp775:
	.cfi_def_cfa_register %rbp
	subq	$720, %rsp              ## imm = 0x2D0
	movq	%rdi, -536(%rbp)
	movq	%rsi, -544(%rbp)
	movq	-536(%rbp), %rsi
Ltmp743:
	leaq	-552(%rbp), %rdi
	xorl	%edx, %edx
	callq	__ZNSt3__113basic_istreamIcNS_11char_traitsIcEEE6sentryC1ERS3_b
Ltmp744:
	jmp	LBB41_1
LBB41_1:
	leaq	-552(%rbp), %rax
	movq	%rax, -528(%rbp)
	movq	-528(%rbp), %rax
	movb	(%rax), %cl
	movb	%cl, -610(%rbp)         ## 1-byte Spill
## BB#2:
	movb	-610(%rbp), %al         ## 1-byte Reload
	testb	$1, %al
	jne	LBB41_3
	jmp	LBB41_51
LBB41_3:
	movq	-544(%rbp), %rax
	movq	%rax, -504(%rbp)
	movq	-504(%rbp), %rax
	movq	%rax, -496(%rbp)
	movq	%rax, -328(%rbp)
	movq	-328(%rbp), %rcx
	movq	%rcx, -320(%rbp)
	movq	-320(%rbp), %rcx
	movq	%rcx, -312(%rbp)
	movq	-312(%rbp), %rcx
	movzbl	(%rcx), %edx
	andl	$1, %edx
	cmpl	$0, %edx
	movq	%rax, -624(%rbp)        ## 8-byte Spill
	je	LBB41_5
## BB#4:
	leaq	-517(%rbp), %rax
	movq	-624(%rbp), %rcx        ## 8-byte Reload
	movq	%rcx, -352(%rbp)
	movq	-352(%rbp), %rdx
	movq	%rdx, -344(%rbp)
	movq	-344(%rbp), %rdx
	movq	%rdx, -336(%rbp)
	movq	-336(%rbp), %rdx
	movq	16(%rdx), %rdx
	movb	$0, -517(%rbp)
	movq	%rdx, -360(%rbp)
	movq	%rax, -368(%rbp)
	movq	-368(%rbp), %rax
	movb	(%rax), %sil
	movq	-360(%rbp), %rax
	movb	%sil, (%rax)
	movq	%rcx, -392(%rbp)
	movq	$0, -400(%rbp)
	movq	-392(%rbp), %rax
	movq	-400(%rbp), %rdx
	movq	%rax, -384(%rbp)
	movq	-384(%rbp), %rax
	movq	%rax, -376(%rbp)
	movq	-376(%rbp), %rax
	movq	%rdx, 8(%rax)
	jmp	LBB41_6
LBB41_5:
	leaq	-518(%rbp), %rax
	movq	-624(%rbp), %rcx        ## 8-byte Reload
	movq	%rcx, -440(%rbp)
	movq	-440(%rbp), %rdx
	movq	%rdx, -432(%rbp)
	movq	-432(%rbp), %rdx
	movq	%rdx, -424(%rbp)
	movq	-424(%rbp), %rdx
	addq	$1, %rdx
	movq	%rdx, -416(%rbp)
	movq	-416(%rbp), %rdx
	movq	%rdx, -408(%rbp)
	movq	-408(%rbp), %rdx
	movb	$0, -518(%rbp)
	movq	%rdx, -448(%rbp)
	movq	%rax, -456(%rbp)
	movq	-456(%rbp), %rax
	movb	(%rax), %sil
	movq	-448(%rbp), %rax
	movb	%sil, (%rax)
	movq	%rcx, -480(%rbp)
	movq	$0, -488(%rbp)
	movq	-480(%rbp), %rax
	movq	-488(%rbp), %rdx
	shlq	$1, %rdx
	movb	%dl, %sil
	movq	%rax, -472(%rbp)
	movq	-472(%rbp), %rax
	movq	%rax, -464(%rbp)
	movq	-464(%rbp), %rax
	movb	%sil, (%rax)
LBB41_6:                                ## %_ZNSt3__112basic_stringIcNS_11char_traitsIcEENS_9allocatorIcEEE5clearEv.exit
	movq	-536(%rbp), %rax
	movq	(%rax), %rcx
	movq	-24(%rcx), %rcx
	addq	%rcx, %rax
	movq	%rax, -272(%rbp)
	movq	-272(%rbp), %rax
	movq	24(%rax), %rax
	movq	%rax, -632(%rbp)        ## 8-byte Spill
## BB#7:
	movq	-632(%rbp), %rax        ## 8-byte Reload
	movq	%rax, -576(%rbp)
	cmpq	$0, -576(%rbp)
	jg	LBB41_10
## BB#8:
	movq	-544(%rbp), %rax
	movq	%rax, -224(%rbp)
	movq	-224(%rbp), %rax
	movq	%rax, -216(%rbp)
	movq	-216(%rbp), %rax
	movq	%rax, -208(%rbp)
	movq	-208(%rbp), %rax
	movq	%rax, -200(%rbp)
	movq	-200(%rbp), %rax
	movq	%rax, -160(%rbp)
	movq	-160(%rbp), %rax
	movq	%rax, -152(%rbp)
	movq	-152(%rbp), %rax
	movq	%rax, -136(%rbp)
	movq	$-1, -232(%rbp)
	movq	-232(%rbp), %rax
	subq	$16, %rax
	movq	%rax, -576(%rbp)
	jmp	LBB41_10
LBB41_9:
Ltmp764:
	movl	%edx, %ecx
	movq	%rax, -560(%rbp)
	movl	%ecx, -564(%rbp)
	jmp	LBB41_28
LBB41_10:
	cmpq	$0, -576(%rbp)
	jg	LBB41_12
## BB#11:
	movabsq	$9223372036854775807, %rax ## imm = 0x7FFFFFFFFFFFFFFF
	movq	%rax, -576(%rbp)
LBB41_12:
	movq	$0, -584(%rbp)
	movq	-536(%rbp), %rax
	movq	(%rax), %rcx
	movq	-24(%rcx), %rcx
	addq	%rcx, %rax
Ltmp747:
	leaq	-600(%rbp), %rdi
	movq	%rax, %rsi
	callq	__ZNKSt3__18ios_base6getlocEv
Ltmp748:
	jmp	LBB41_13
LBB41_13:
	leaq	-600(%rbp), %rax
	movq	%rax, -56(%rbp)
Ltmp749:
	movq	__ZNSt3__15ctypeIcE2idE@GOTPCREL(%rip), %rsi
	movq	%rax, %rdi
	callq	__ZNKSt3__16locale9use_facetERNS0_2idE
Ltmp750:
	movq	%rax, -640(%rbp)        ## 8-byte Spill
	jmp	LBB41_14
LBB41_14:                               ## %_ZNSt3__19use_facetINS_5ctypeIcEEEERKT_RKNS_6localeE.exit
	movq	-640(%rbp), %rax        ## 8-byte Reload
	movq	%rax, -648(%rbp)        ## 8-byte Spill
## BB#15:
Ltmp754:
	leaq	-600(%rbp), %rdi
	callq	__ZNSt3__16localeD1Ev
Ltmp755:
	jmp	LBB41_16
LBB41_16:
	movq	-648(%rbp), %rax        ## 8-byte Reload
	movq	%rax, -592(%rbp)
	movl	$0, -604(%rbp)
LBB41_17:                               ## =>This Inner Loop Header: Depth=1
	movq	-584(%rbp), %rax
	cmpq	-576(%rbp), %rax
	jge	LBB41_45
## BB#18:                               ##   in Loop: Header=BB41_17 Depth=1
	movq	-536(%rbp), %rax
	movq	(%rax), %rcx
	movq	-24(%rcx), %rcx
	addq	%rcx, %rax
	movq	%rax, -48(%rbp)
	movq	-48(%rbp), %rax
	movq	%rax, -40(%rbp)
	movq	-40(%rbp), %rax
	movq	40(%rax), %rax
	movq	%rax, -656(%rbp)        ## 8-byte Spill
## BB#19:                               ##   in Loop: Header=BB41_17 Depth=1
	movq	-656(%rbp), %rax        ## 8-byte Reload
	movq	%rax, -16(%rbp)
	movq	-16(%rbp), %rcx
	movq	24(%rcx), %rdx
	cmpq	32(%rcx), %rdx
	movq	%rcx, -664(%rbp)        ## 8-byte Spill
	jne	LBB41_22
## BB#20:                               ##   in Loop: Header=BB41_17 Depth=1
	movq	-664(%rbp), %rax        ## 8-byte Reload
	movq	(%rax), %rcx
	movq	72(%rcx), %rcx
Ltmp756:
	movq	%rax, %rdi
	callq	*%rcx
Ltmp757:
	movl	%eax, -668(%rbp)        ## 4-byte Spill
	jmp	LBB41_21
LBB41_21:                               ## %.noexc3
                                        ##   in Loop: Header=BB41_17 Depth=1
	movl	-668(%rbp), %eax        ## 4-byte Reload
	movl	%eax, -8(%rbp)
	jmp	LBB41_23
LBB41_22:                               ##   in Loop: Header=BB41_17 Depth=1
	movq	-664(%rbp), %rax        ## 8-byte Reload
	movq	24(%rax), %rcx
	movb	(%rcx), %dl
	movb	%dl, -1(%rbp)
	movzbl	-1(%rbp), %esi
	movl	%esi, -8(%rbp)
LBB41_23:                               ## %_ZNSt3__115basic_streambufIcNS_11char_traitsIcEEE5sgetcEv.exit
                                        ##   in Loop: Header=BB41_17 Depth=1
	movl	-8(%rbp), %eax
	movl	%eax, -672(%rbp)        ## 4-byte Spill
## BB#24:                               ##   in Loop: Header=BB41_17 Depth=1
	movl	-672(%rbp), %eax        ## 4-byte Reload
	movl	%eax, -608(%rbp)
	movl	-608(%rbp), %ecx
	movl	%ecx, -20(%rbp)
	movl	$-1, -24(%rbp)
	movl	-20(%rbp), %ecx
	cmpl	-24(%rbp), %ecx
	jne	LBB41_31
## BB#25:
	movl	-604(%rbp), %eax
	orl	$2, %eax
	movl	%eax, -604(%rbp)
	jmp	LBB41_45
LBB41_26:
Ltmp751:
	movl	%edx, %ecx
	movq	%rax, -560(%rbp)
	movl	%ecx, -564(%rbp)
Ltmp752:
	leaq	-600(%rbp), %rdi
	callq	__ZNSt3__16localeD1Ev
Ltmp753:
	jmp	LBB41_27
LBB41_27:
	jmp	LBB41_28
LBB41_28:
	movq	-560(%rbp), %rdi
	callq	___cxa_begin_catch
	movq	-536(%rbp), %rdi
	movq	(%rdi), %rcx
	movq	-24(%rcx), %rcx
	addq	%rcx, %rdi
Ltmp765:
	movq	%rax, -680(%rbp)        ## 8-byte Spill
	callq	__ZNSt3__18ios_base33__set_badbit_and_consider_rethrowEv
Ltmp766:
	jmp	LBB41_29
LBB41_29:
	callq	___cxa_end_catch
LBB41_30:
	movq	-536(%rbp), %rax
	addq	$720, %rsp              ## imm = 0x2D0
	popq	%rbp
	ret
LBB41_31:                               ##   in Loop: Header=BB41_17 Depth=1
	movl	-608(%rbp), %eax
	movl	%eax, -28(%rbp)
	movl	-28(%rbp), %eax
	movb	%al, %cl
	movb	%cl, -609(%rbp)
	movq	-592(%rbp), %rdx
	movb	-609(%rbp), %cl
	movq	%rdx, -64(%rbp)
	movl	$16384, -68(%rbp)       ## imm = 0x4000
	movb	%cl, -69(%rbp)
	movq	-64(%rbp), %rdx
	movsbl	-69(%rbp), %edi
	movq	%rdx, -688(%rbp)        ## 8-byte Spill
	callq	__Z7isasciii
	cmpl	$0, %eax
	je	LBB41_33
## BB#32:                               ##   in Loop: Header=BB41_17 Depth=1
	movsbl	-69(%rbp), %eax
	movslq	%eax, %rcx
	movq	-688(%rbp), %rdx        ## 8-byte Reload
	movq	16(%rdx), %rsi
	movl	(%rsi,%rcx,4), %eax
	andl	-68(%rbp), %eax
	cmpl	$0, %eax
	setne	%dil
	movb	%dil, -689(%rbp)        ## 1-byte Spill
	jmp	LBB41_34
LBB41_33:                               ##   in Loop: Header=BB41_17 Depth=1
	movb	$0, %al
	movb	%al, -689(%rbp)         ## 1-byte Spill
	jmp	LBB41_34
LBB41_34:                               ## %_ZNKSt3__15ctypeIcE2isEjc.exit
                                        ##   in Loop: Header=BB41_17 Depth=1
	movb	-689(%rbp), %al         ## 1-byte Reload
	movb	%al, -690(%rbp)         ## 1-byte Spill
## BB#35:                               ##   in Loop: Header=BB41_17 Depth=1
	movb	-690(%rbp), %al         ## 1-byte Reload
	testb	$1, %al
	jne	LBB41_36
	jmp	LBB41_37
LBB41_36:
	jmp	LBB41_45
LBB41_37:                               ##   in Loop: Header=BB41_17 Depth=1
	movq	-544(%rbp), %rdi
	movsbl	-609(%rbp), %esi
Ltmp758:
	callq	__ZNSt3__112basic_stringIcNS_11char_traitsIcEENS_9allocatorIcEEE9push_backEc
Ltmp759:
	jmp	LBB41_38
LBB41_38:                               ##   in Loop: Header=BB41_17 Depth=1
	movq	-584(%rbp), %rax
	addq	$1, %rax
	movq	%rax, -584(%rbp)
	movq	-536(%rbp), %rax
	movq	(%rax), %rcx
	movq	-24(%rcx), %rcx
	addq	%rcx, %rax
	movq	%rax, -88(%rbp)
	movq	-88(%rbp), %rax
	movq	%rax, -80(%rbp)
	movq	-80(%rbp), %rax
	movq	40(%rax), %rax
	movq	%rax, -704(%rbp)        ## 8-byte Spill
## BB#39:                               ##   in Loop: Header=BB41_17 Depth=1
	movq	-704(%rbp), %rax        ## 8-byte Reload
	movq	%rax, -104(%rbp)
	movq	-104(%rbp), %rcx
	movq	24(%rcx), %rdx
	cmpq	32(%rcx), %rdx
	movq	%rcx, -712(%rbp)        ## 8-byte Spill
	jne	LBB41_42
## BB#40:                               ##   in Loop: Header=BB41_17 Depth=1
	movq	-712(%rbp), %rax        ## 8-byte Reload
	movq	(%rax), %rcx
	movq	80(%rcx), %rcx
Ltmp760:
	movq	%rax, %rdi
	callq	*%rcx
Ltmp761:
	movl	%eax, -716(%rbp)        ## 4-byte Spill
	jmp	LBB41_41
LBB41_41:                               ## %.noexc
                                        ##   in Loop: Header=BB41_17 Depth=1
	movl	-716(%rbp), %eax        ## 4-byte Reload
	movl	%eax, -96(%rbp)
	jmp	LBB41_43
LBB41_42:                               ##   in Loop: Header=BB41_17 Depth=1
	movq	-712(%rbp), %rax        ## 8-byte Reload
	movq	24(%rax), %rcx
	movq	%rcx, %rdx
	addq	$1, %rdx
	movq	%rdx, 24(%rax)
	movb	(%rcx), %sil
	movb	%sil, -89(%rbp)
	movzbl	-89(%rbp), %edi
	movl	%edi, -96(%rbp)
LBB41_43:                               ## %_ZNSt3__115basic_streambufIcNS_11char_traitsIcEEE6sbumpcEv.exit
                                        ##   in Loop: Header=BB41_17 Depth=1
## BB#44:                               ##   in Loop: Header=BB41_17 Depth=1
	jmp	LBB41_17
LBB41_45:
	movq	-536(%rbp), %rax
	movq	(%rax), %rcx
	movq	-24(%rcx), %rcx
	addq	%rcx, %rax
	movq	%rax, -112(%rbp)
	movq	$0, -120(%rbp)
	movq	-112(%rbp), %rax
	movq	24(%rax), %rcx
	movq	%rcx, -128(%rbp)
	movq	-120(%rbp), %rcx
	movq	%rcx, 24(%rax)
## BB#46:
	cmpq	$0, -584(%rbp)
	jne	LBB41_48
## BB#47:
	movl	-604(%rbp), %eax
	orl	$4, %eax
	movl	%eax, -604(%rbp)
LBB41_48:
	movq	-536(%rbp), %rax
	movq	(%rax), %rcx
	movq	-24(%rcx), %rcx
	addq	%rcx, %rax
	movl	-604(%rbp), %edx
	movq	%rax, -256(%rbp)
	movl	%edx, -260(%rbp)
	movq	-256(%rbp), %rax
	movq	%rax, -240(%rbp)
	movl	%edx, -244(%rbp)
	movq	-240(%rbp), %rax
	movl	32(%rax), %esi
	orl	%edx, %esi
Ltmp762:
	movq	%rax, %rdi
	callq	__ZNSt3__18ios_base5clearEj
Ltmp763:
	jmp	LBB41_49
LBB41_49:                               ## %_ZNSt3__19basic_iosIcNS_11char_traitsIcEEE8setstateEj.exit1
	jmp	LBB41_50
LBB41_50:
	jmp	LBB41_54
LBB41_51:
	movq	-536(%rbp), %rax
	movq	(%rax), %rcx
	movq	-24(%rcx), %rcx
	addq	%rcx, %rax
	movq	%rax, -296(%rbp)
	movl	$4, -300(%rbp)
	movq	-296(%rbp), %rax
	movq	%rax, -280(%rbp)
	movl	$4, -284(%rbp)
	movq	-280(%rbp), %rax
	movl	32(%rax), %edx
	orl	$4, %edx
Ltmp745:
	movq	%rax, %rdi
	movl	%edx, %esi
	callq	__ZNSt3__18ios_base5clearEj
Ltmp746:
	jmp	LBB41_52
LBB41_52:                               ## %_ZNSt3__19basic_iosIcNS_11char_traitsIcEEE8setstateEj.exit
	jmp	LBB41_53
LBB41_53:
	jmp	LBB41_54
LBB41_54:
	jmp	LBB41_30
LBB41_55:
Ltmp767:
	movl	%edx, %ecx
	movq	%rax, -560(%rbp)
	movl	%ecx, -564(%rbp)
Ltmp768:
	callq	___cxa_end_catch
Ltmp769:
	jmp	LBB41_56
LBB41_56:
	jmp	LBB41_57
LBB41_57:
	movq	-560(%rbp), %rdi
	callq	__Unwind_Resume
LBB41_58:
Ltmp770:
	movl	%edx, %ecx
	movq	%rax, %rdi
	movl	%ecx, -720(%rbp)        ## 4-byte Spill
	callq	___clang_call_terminate
	.cfi_endproc
Leh_func_end41:
	.section	__TEXT,__gcc_except_tab
	.align	2
GCC_except_table41:
Lexception41:
	.byte	255                     ## @LPStart Encoding = omit
	.byte	155                     ## @TType Encoding = indirect pcrel sdata4
	.asciz	"\213\201"              ## @TType base offset
	.byte	3                       ## Call site Encoding = udata4
	.ascii	"\202\001"              ## Call site table length
Lset347 = Ltmp743-Leh_func_begin41      ## >> Call Site 1 <<
	.long	Lset347
Lset348 = Ltmp748-Ltmp743               ##   Call between Ltmp743 and Ltmp748
	.long	Lset348
Lset349 = Ltmp764-Leh_func_begin41      ##     jumps to Ltmp764
	.long	Lset349
	.byte	1                       ##   On action: 1
Lset350 = Ltmp749-Leh_func_begin41      ## >> Call Site 2 <<
	.long	Lset350
Lset351 = Ltmp750-Ltmp749               ##   Call between Ltmp749 and Ltmp750
	.long	Lset351
Lset352 = Ltmp751-Leh_func_begin41      ##     jumps to Ltmp751
	.long	Lset352
	.byte	1                       ##   On action: 1
Lset353 = Ltmp754-Leh_func_begin41      ## >> Call Site 3 <<
	.long	Lset353
Lset354 = Ltmp757-Ltmp754               ##   Call between Ltmp754 and Ltmp757
	.long	Lset354
Lset355 = Ltmp764-Leh_func_begin41      ##     jumps to Ltmp764
	.long	Lset355
	.byte	1                       ##   On action: 1
Lset356 = Ltmp752-Leh_func_begin41      ## >> Call Site 4 <<
	.long	Lset356
Lset357 = Ltmp753-Ltmp752               ##   Call between Ltmp752 and Ltmp753
	.long	Lset357
Lset358 = Ltmp770-Leh_func_begin41      ##     jumps to Ltmp770
	.long	Lset358
	.byte	1                       ##   On action: 1
Lset359 = Ltmp753-Leh_func_begin41      ## >> Call Site 5 <<
	.long	Lset359
Lset360 = Ltmp765-Ltmp753               ##   Call between Ltmp753 and Ltmp765
	.long	Lset360
	.long	0                       ##     has no landing pad
	.byte	0                       ##   On action: cleanup
Lset361 = Ltmp765-Leh_func_begin41      ## >> Call Site 6 <<
	.long	Lset361
Lset362 = Ltmp766-Ltmp765               ##   Call between Ltmp765 and Ltmp766
	.long	Lset362
Lset363 = Ltmp767-Leh_func_begin41      ##     jumps to Ltmp767
	.long	Lset363
	.byte	0                       ##   On action: cleanup
Lset364 = Ltmp766-Leh_func_begin41      ## >> Call Site 7 <<
	.long	Lset364
Lset365 = Ltmp758-Ltmp766               ##   Call between Ltmp766 and Ltmp758
	.long	Lset365
	.long	0                       ##     has no landing pad
	.byte	0                       ##   On action: cleanup
Lset366 = Ltmp758-Leh_func_begin41      ## >> Call Site 8 <<
	.long	Lset366
Lset367 = Ltmp746-Ltmp758               ##   Call between Ltmp758 and Ltmp746
	.long	Lset367
Lset368 = Ltmp764-Leh_func_begin41      ##     jumps to Ltmp764
	.long	Lset368
	.byte	1                       ##   On action: 1
Lset369 = Ltmp768-Leh_func_begin41      ## >> Call Site 9 <<
	.long	Lset369
Lset370 = Ltmp769-Ltmp768               ##   Call between Ltmp768 and Ltmp769
	.long	Lset370
Lset371 = Ltmp770-Leh_func_begin41      ##     jumps to Ltmp770
	.long	Lset371
	.byte	1                       ##   On action: 1
Lset372 = Ltmp769-Leh_func_begin41      ## >> Call Site 10 <<
	.long	Lset372
Lset373 = Leh_func_end41-Ltmp769        ##   Call between Ltmp769 and Leh_func_end41
	.long	Lset373
	.long	0                       ##     has no landing pad
	.byte	0                       ##   On action: cleanup
	.byte	1                       ## >> Action Record 1 <<
                                        ##   Catch TypeInfo 1
	.byte	0                       ##   No further actions
                                        ## >> Catch TypeInfos <<
	.long	0                       ## TypeInfo 1
	.align	2

	.section	__TEXT,__textcoal_nt,coalesced,pure_instructions
	.globl	__ZNSt3__1lsINS_11char_traitsIcEEEERNS_13basic_ostreamIcT_EES6_c
	.weak_def_can_be_hidden	__ZNSt3__1lsINS_11char_traitsIcEEEERNS_13basic_ostreamIcT_EES6_c
	.align	4, 0x90
__ZNSt3__1lsINS_11char_traitsIcEEEERNS_13basic_ostreamIcT_EES6_c: ## @_ZNSt3__1lsINS_11char_traitsIcEEEERNS_13basic_ostreamIcT_EES6_c
	.cfi_startproc
	.cfi_personality 155, ___gxx_personality_v0
Leh_func_begin42:
	.cfi_lsda 16, Lexception42
## BB#0:
	pushq	%rbp
Ltmp808:
	.cfi_def_cfa_offset 16
Ltmp809:
	.cfi_offset %rbp, -16
	movq	%rsp, %rbp
Ltmp810:
	.cfi_def_cfa_register %rbp
	subq	$400, %rsp              ## imm = 0x190
	movb	%sil, %al
	movq	%rdi, -208(%rbp)
	movb	%al, -209(%rbp)
	movq	-208(%rbp), %rsi
Ltmp776:
	leaq	-232(%rbp), %rdi
	callq	__ZNSt3__113basic_ostreamIcNS_11char_traitsIcEEE6sentryC1ERS3_
Ltmp777:
	jmp	LBB42_1
LBB42_1:
	leaq	-232(%rbp), %rax
	movq	%rax, -200(%rbp)
	movq	-200(%rbp), %rax
	movb	(%rax), %cl
	movb	%cl, -265(%rbp)         ## 1-byte Spill
## BB#2:
	movb	-265(%rbp), %al         ## 1-byte Reload
	testb	$1, %al
	jne	LBB42_3
	jmp	LBB42_26
LBB42_3:
	leaq	-256(%rbp), %rax
	movq	-208(%rbp), %rcx
	movq	%rax, -184(%rbp)
	movq	%rcx, -192(%rbp)
	movq	-184(%rbp), %rax
	movq	-192(%rbp), %rcx
	movq	%rax, -152(%rbp)
	movq	%rcx, -160(%rbp)
	movq	-152(%rbp), %rax
	movq	-160(%rbp), %rcx
	movq	(%rcx), %rdx
	movq	-24(%rdx), %rdx
	addq	%rdx, %rcx
	movq	%rcx, -144(%rbp)
	movq	-144(%rbp), %rcx
	movq	%rcx, -136(%rbp)
	movq	-136(%rbp), %rcx
	movq	40(%rcx), %rcx
	movq	%rcx, (%rax)
	movq	-208(%rbp), %rax
	movq	(%rax), %rcx
	movq	-24(%rcx), %rcx
	addq	%rcx, %rax
	movq	%rax, -96(%rbp)
	movq	-96(%rbp), %rax
	movl	8(%rax), %esi
	movl	%esi, -272(%rbp)        ## 4-byte Spill
## BB#4:
	movl	-272(%rbp), %eax        ## 4-byte Reload
	andl	$176, %eax
	cmpl	$32, %eax
	jne	LBB42_6
## BB#5:
	leaq	-209(%rbp), %rax
	addq	$1, %rax
	movq	%rax, -280(%rbp)        ## 8-byte Spill
	jmp	LBB42_7
LBB42_6:
	leaq	-209(%rbp), %rax
	movq	%rax, -280(%rbp)        ## 8-byte Spill
	jmp	LBB42_7
LBB42_7:
	movq	-280(%rbp), %rax        ## 8-byte Reload
	leaq	-209(%rbp), %rcx
	addq	$1, %rcx
	movq	-208(%rbp), %rdx
	movq	(%rdx), %rsi
	movq	-24(%rsi), %rsi
	addq	%rsi, %rdx
	movq	-208(%rbp), %rsi
	movq	(%rsi), %rdi
	movq	-24(%rdi), %rdi
	addq	%rdi, %rsi
	movq	%rsi, -80(%rbp)
	movq	-80(%rbp), %rsi
	movl	144(%rsi), %r8d
	movl	$-1, -4(%rbp)
	movl	%r8d, -8(%rbp)
	movl	-4(%rbp), %r8d
	cmpl	-8(%rbp), %r8d
	movq	%rax, -288(%rbp)        ## 8-byte Spill
	movq	%rcx, -296(%rbp)        ## 8-byte Spill
	movq	%rdx, -304(%rbp)        ## 8-byte Spill
	movq	%rsi, -312(%rbp)        ## 8-byte Spill
	jne	LBB42_16
## BB#8:
	movq	-312(%rbp), %rax        ## 8-byte Reload
	movq	%rax, -40(%rbp)
	movb	$32, -41(%rbp)
	movq	-40(%rbp), %rsi
Ltmp778:
	leaq	-56(%rbp), %rdi
	callq	__ZNKSt3__18ios_base6getlocEv
Ltmp779:
	jmp	LBB42_9
LBB42_9:                                ## %.noexc
	leaq	-56(%rbp), %rax
	movq	%rax, -32(%rbp)
Ltmp780:
	movq	__ZNSt3__15ctypeIcE2idE@GOTPCREL(%rip), %rsi
	movq	%rax, %rdi
	callq	__ZNKSt3__16locale9use_facetERNS0_2idE
Ltmp781:
	movq	%rax, -320(%rbp)        ## 8-byte Spill
	jmp	LBB42_10
LBB42_10:                               ## %_ZNSt3__19use_facetINS_5ctypeIcEEEERKT_RKNS_6localeE.exit.i.i
	movb	-41(%rbp), %al
	movq	-320(%rbp), %rcx        ## 8-byte Reload
	movq	%rcx, -16(%rbp)
	movb	%al, -17(%rbp)
	movq	-16(%rbp), %rdx
	movq	(%rdx), %rsi
	movq	56(%rsi), %rsi
	movsbl	-17(%rbp), %edi
Ltmp782:
	movl	%edi, -324(%rbp)        ## 4-byte Spill
	movq	%rdx, %rdi
	movl	-324(%rbp), %r8d        ## 4-byte Reload
	movq	%rsi, -336(%rbp)        ## 8-byte Spill
	movl	%r8d, %esi
	movq	-336(%rbp), %rdx        ## 8-byte Reload
	callq	*%rdx
Ltmp783:
	movb	%al, -337(%rbp)         ## 1-byte Spill
	jmp	LBB42_14
LBB42_11:
Ltmp784:
	movl	%edx, %ecx
	movq	%rax, -64(%rbp)
	movl	%ecx, -68(%rbp)
Ltmp785:
	leaq	-56(%rbp), %rdi
	callq	__ZNSt3__16localeD1Ev
Ltmp786:
	jmp	LBB42_12
LBB42_12:
	movq	-64(%rbp), %rax
	movl	-68(%rbp), %ecx
	movq	%rax, -352(%rbp)        ## 8-byte Spill
	movl	%ecx, -356(%rbp)        ## 4-byte Spill
	jmp	LBB42_24
LBB42_13:
Ltmp787:
	movl	%edx, %ecx
	movq	%rax, %rdi
	movl	%ecx, -360(%rbp)        ## 4-byte Spill
	callq	___clang_call_terminate
LBB42_14:                               ## %_ZNKSt3__19basic_iosIcNS_11char_traitsIcEEE5widenEc.exit.i
Ltmp788:
	leaq	-56(%rbp), %rdi
	callq	__ZNSt3__16localeD1Ev
Ltmp789:
	jmp	LBB42_15
LBB42_15:                               ## %.noexc1
	movb	-337(%rbp), %al         ## 1-byte Reload
	movsbl	%al, %ecx
	movq	-312(%rbp), %rdx        ## 8-byte Reload
	movl	%ecx, 144(%rdx)
LBB42_16:                               ## %_ZNKSt3__19basic_iosIcNS_11char_traitsIcEEE4fillEv.exit
	movq	-312(%rbp), %rax        ## 8-byte Reload
	movl	144(%rax), %ecx
	movb	%cl, %dl
	movb	%dl, -361(%rbp)         ## 1-byte Spill
## BB#17:
	movq	-256(%rbp), %rdi
Ltmp790:
	movb	-361(%rbp), %al         ## 1-byte Reload
	movsbl	%al, %r9d
	leaq	-209(%rbp), %rsi
	movq	-288(%rbp), %rdx        ## 8-byte Reload
	movq	-296(%rbp), %rcx        ## 8-byte Reload
	movq	-304(%rbp), %r8         ## 8-byte Reload
	callq	__ZNSt3__116__pad_and_outputIcNS_11char_traitsIcEEEENS_19ostreambuf_iteratorIT_T0_EES6_PKS4_S8_S8_RNS_8ios_baseES4_
Ltmp791:
	movq	%rax, -376(%rbp)        ## 8-byte Spill
	jmp	LBB42_18
LBB42_18:
	leaq	-264(%rbp), %rax
	movq	-376(%rbp), %rcx        ## 8-byte Reload
	movq	%rcx, -264(%rbp)
	movq	%rax, -88(%rbp)
	movq	-88(%rbp), %rax
	cmpq	$0, (%rax)
	jne	LBB42_25
## BB#19:
	movq	-208(%rbp), %rax
	movq	(%rax), %rcx
	movq	-24(%rcx), %rcx
	addq	%rcx, %rax
	movq	%rax, -120(%rbp)
	movl	$5, -124(%rbp)
	movq	-120(%rbp), %rax
	movq	%rax, -104(%rbp)
	movl	$5, -108(%rbp)
	movq	-104(%rbp), %rax
	movl	32(%rax), %edx
	orl	$5, %edx
Ltmp792:
	movq	%rax, %rdi
	movl	%edx, %esi
	callq	__ZNSt3__18ios_base5clearEj
Ltmp793:
	jmp	LBB42_20
LBB42_20:                               ## %_ZNSt3__19basic_iosIcNS_11char_traitsIcEEE8setstateEj.exit
	jmp	LBB42_21
LBB42_21:
	jmp	LBB42_25
LBB42_22:
Ltmp799:
	movl	%edx, %ecx
	movq	%rax, -240(%rbp)
	movl	%ecx, -244(%rbp)
	jmp	LBB42_29
LBB42_23:
Ltmp794:
	movl	%edx, %ecx
	movq	%rax, -352(%rbp)        ## 8-byte Spill
	movl	%ecx, -356(%rbp)        ## 4-byte Spill
LBB42_24:                               ## %.body
	movl	-356(%rbp), %eax        ## 4-byte Reload
	movq	-352(%rbp), %rcx        ## 8-byte Reload
	movq	%rcx, -240(%rbp)
	movl	%eax, -244(%rbp)
Ltmp795:
	leaq	-232(%rbp), %rdi
	callq	__ZNSt3__113basic_ostreamIcNS_11char_traitsIcEEE6sentryD1Ev
Ltmp796:
	jmp	LBB42_28
LBB42_25:
	jmp	LBB42_26
LBB42_26:
Ltmp797:
	leaq	-232(%rbp), %rdi
	callq	__ZNSt3__113basic_ostreamIcNS_11char_traitsIcEEE6sentryD1Ev
Ltmp798:
	jmp	LBB42_27
LBB42_27:
	jmp	LBB42_31
LBB42_28:
	jmp	LBB42_29
LBB42_29:
	movq	-240(%rbp), %rdi
	callq	___cxa_begin_catch
	movq	-208(%rbp), %rdi
	movq	(%rdi), %rcx
	movq	-24(%rcx), %rcx
	addq	%rcx, %rdi
Ltmp800:
	movq	%rax, -384(%rbp)        ## 8-byte Spill
	callq	__ZNSt3__18ios_base33__set_badbit_and_consider_rethrowEv
Ltmp801:
	jmp	LBB42_30
LBB42_30:
	callq	___cxa_end_catch
LBB42_31:
	movq	-208(%rbp), %rax
	addq	$400, %rsp              ## imm = 0x190
	popq	%rbp
	ret
LBB42_32:
Ltmp802:
	movl	%edx, %ecx
	movq	%rax, -240(%rbp)
	movl	%ecx, -244(%rbp)
Ltmp803:
	callq	___cxa_end_catch
Ltmp804:
	jmp	LBB42_33
LBB42_33:
	jmp	LBB42_34
LBB42_34:
	movq	-240(%rbp), %rdi
	callq	__Unwind_Resume
LBB42_35:
Ltmp805:
	movl	%edx, %ecx
	movq	%rax, %rdi
	movl	%ecx, -388(%rbp)        ## 4-byte Spill
	callq	___clang_call_terminate
	.cfi_endproc
Leh_func_end42:
	.section	__TEXT,__gcc_except_tab
	.align	2
GCC_except_table42:
Lexception42:
	.byte	255                     ## @LPStart Encoding = omit
	.byte	155                     ## @TType Encoding = indirect pcrel sdata4
	.asciz	"\253\201"              ## @TType base offset
	.byte	3                       ## Call site Encoding = udata4
	.ascii	"\234\001"              ## Call site table length
Lset374 = Ltmp776-Leh_func_begin42      ## >> Call Site 1 <<
	.long	Lset374
Lset375 = Ltmp777-Ltmp776               ##   Call between Ltmp776 and Ltmp777
	.long	Lset375
Lset376 = Ltmp799-Leh_func_begin42      ##     jumps to Ltmp799
	.long	Lset376
	.byte	5                       ##   On action: 3
Lset377 = Ltmp778-Leh_func_begin42      ## >> Call Site 2 <<
	.long	Lset377
Lset378 = Ltmp779-Ltmp778               ##   Call between Ltmp778 and Ltmp779
	.long	Lset378
Lset379 = Ltmp794-Leh_func_begin42      ##     jumps to Ltmp794
	.long	Lset379
	.byte	5                       ##   On action: 3
Lset380 = Ltmp780-Leh_func_begin42      ## >> Call Site 3 <<
	.long	Lset380
Lset381 = Ltmp783-Ltmp780               ##   Call between Ltmp780 and Ltmp783
	.long	Lset381
Lset382 = Ltmp784-Leh_func_begin42      ##     jumps to Ltmp784
	.long	Lset382
	.byte	3                       ##   On action: 2
Lset383 = Ltmp785-Leh_func_begin42      ## >> Call Site 4 <<
	.long	Lset383
Lset384 = Ltmp786-Ltmp785               ##   Call between Ltmp785 and Ltmp786
	.long	Lset384
Lset385 = Ltmp787-Leh_func_begin42      ##     jumps to Ltmp787
	.long	Lset385
	.byte	7                       ##   On action: 4
Lset386 = Ltmp788-Leh_func_begin42      ## >> Call Site 5 <<
	.long	Lset386
Lset387 = Ltmp793-Ltmp788               ##   Call between Ltmp788 and Ltmp793
	.long	Lset387
Lset388 = Ltmp794-Leh_func_begin42      ##     jumps to Ltmp794
	.long	Lset388
	.byte	5                       ##   On action: 3
Lset389 = Ltmp795-Leh_func_begin42      ## >> Call Site 6 <<
	.long	Lset389
Lset390 = Ltmp796-Ltmp795               ##   Call between Ltmp795 and Ltmp796
	.long	Lset390
Lset391 = Ltmp805-Leh_func_begin42      ##     jumps to Ltmp805
	.long	Lset391
	.byte	5                       ##   On action: 3
Lset392 = Ltmp797-Leh_func_begin42      ## >> Call Site 7 <<
	.long	Lset392
Lset393 = Ltmp798-Ltmp797               ##   Call between Ltmp797 and Ltmp798
	.long	Lset393
Lset394 = Ltmp799-Leh_func_begin42      ##     jumps to Ltmp799
	.long	Lset394
	.byte	5                       ##   On action: 3
Lset395 = Ltmp798-Leh_func_begin42      ## >> Call Site 8 <<
	.long	Lset395
Lset396 = Ltmp800-Ltmp798               ##   Call between Ltmp798 and Ltmp800
	.long	Lset396
	.long	0                       ##     has no landing pad
	.byte	0                       ##   On action: cleanup
Lset397 = Ltmp800-Leh_func_begin42      ## >> Call Site 9 <<
	.long	Lset397
Lset398 = Ltmp801-Ltmp800               ##   Call between Ltmp800 and Ltmp801
	.long	Lset398
Lset399 = Ltmp802-Leh_func_begin42      ##     jumps to Ltmp802
	.long	Lset399
	.byte	0                       ##   On action: cleanup
Lset400 = Ltmp801-Leh_func_begin42      ## >> Call Site 10 <<
	.long	Lset400
Lset401 = Ltmp803-Ltmp801               ##   Call between Ltmp801 and Ltmp803
	.long	Lset401
	.long	0                       ##     has no landing pad
	.byte	0                       ##   On action: cleanup
Lset402 = Ltmp803-Leh_func_begin42      ## >> Call Site 11 <<
	.long	Lset402
Lset403 = Ltmp804-Ltmp803               ##   Call between Ltmp803 and Ltmp804
	.long	Lset403
Lset404 = Ltmp805-Leh_func_begin42      ##     jumps to Ltmp805
	.long	Lset404
	.byte	5                       ##   On action: 3
Lset405 = Ltmp804-Leh_func_begin42      ## >> Call Site 12 <<
	.long	Lset405
Lset406 = Leh_func_end42-Ltmp804        ##   Call between Ltmp804 and Leh_func_end42
	.long	Lset406
	.long	0                       ##     has no landing pad
	.byte	0                       ##   On action: cleanup
	.byte	0                       ## >> Action Record 1 <<
                                        ##   Cleanup
	.byte	0                       ##   No further actions
	.byte	1                       ## >> Action Record 2 <<
                                        ##   Catch TypeInfo 1
	.byte	125                     ##   Continue to action 1
	.byte	1                       ## >> Action Record 3 <<
                                        ##   Catch TypeInfo 1
	.byte	0                       ##   No further actions
	.byte	1                       ## >> Action Record 4 <<
                                        ##   Catch TypeInfo 1
	.byte	125                     ##   Continue to action 3
                                        ## >> Catch TypeInfos <<
	.long	0                       ## TypeInfo 1
	.align	2

	.section	__TEXT,__text,regular,pure_instructions
	.globl	__ZN5Store11writeToFileENSt3__112basic_stringIcNS0_11char_traitsIcEENS0_9allocatorIcEEEE
	.align	4, 0x90
__ZN5Store11writeToFileENSt3__112basic_stringIcNS0_11char_traitsIcEENS0_9allocatorIcEEEE: ## @_ZN5Store11writeToFileENSt3__112basic_stringIcNS0_11char_traitsIcEENS0_9allocatorIcEEEE
	.cfi_startproc
	.cfi_personality 155, ___gxx_personality_v0
Leh_func_begin43:
	.cfi_lsda 16, Lexception43
## BB#0:
	pushq	%rbp
Ltmp840:
	.cfi_def_cfa_offset 16
Ltmp841:
	.cfi_offset %rbp, -16
	movq	%rsp, %rbp
Ltmp842:
	.cfi_def_cfa_register %rbp
	subq	$848, %rsp              ## imm = 0x350
	movq	___stack_chk_guard@GOTPCREL(%rip), %rax
	movq	(%rax), %rax
	movq	%rax, -8(%rbp)
	movq	%rdi, -168(%rbp)
	movq	__ZNSt3__14coutE@GOTPCREL(%rip), %rdi
	leaq	L_.str11(%rip), %rax
	movq	%rsi, -760(%rbp)        ## 8-byte Spill
	movq	%rax, %rsi
	callq	__ZNSt3__1lsINS_11char_traitsIcEEEERNS_13basic_ostreamIcT_EES6_PKc
	movq	%rax, -152(%rbp)
	leaq	__ZNSt3__14endlIcNS_11char_traitsIcEEEERNS_13basic_ostreamIT_T0_EES7_(%rip), %rax
	movq	%rax, -160(%rbp)
	movq	-152(%rbp), %rdi
	callq	*%rax
	leaq	-736(%rbp), %rsi
	movq	%rsi, -128(%rbp)
	leaq	-320(%rbp), %rdi
	movq	%rdi, -120(%rbp)
	movq	%rdi, -112(%rbp)
	movq	__ZTVNSt3__18ios_baseE@GOTPCREL(%rip), %rdi
	addq	$16, %rdi
	movq	%rdi, -320(%rbp)
	movq	__ZTVNSt3__19basic_iosIcNS_11char_traitsIcEEEE@GOTPCREL(%rip), %rdi
	addq	$16, %rdi
	movq	%rdi, -320(%rbp)
	movq	__ZTVNSt3__114basic_ofstreamIcNS_11char_traitsIcEEEE@GOTPCREL(%rip), %rdi
	movq	%rdi, %rcx
	addq	$24, %rcx
	movq	%rcx, -736(%rbp)
	addq	$64, %rdi
	movq	%rdi, -320(%rbp)
	leaq	-728(%rbp), %rcx
	movq	%rsi, -88(%rbp)
	movq	__ZTTNSt3__114basic_ofstreamIcNS_11char_traitsIcEEEE@GOTPCREL(%rip), %rdi
	addq	$8, %rdi
	movq	%rdi, -96(%rbp)
	movq	%rcx, -104(%rbp)
	movq	-88(%rbp), %rcx
	movq	-96(%rbp), %rdi
	movq	(%rdi), %rdx
	movq	%rdx, (%rcx)
	movq	8(%rdi), %rdi
	movq	-24(%rdx), %rdx
	movq	%rdi, (%rcx,%rdx)
	movq	(%rcx), %rdx
	movq	-24(%rdx), %rdx
	addq	%rdx, %rcx
	movq	-104(%rbp), %rdx
	movq	%rcx, -72(%rbp)
	movq	%rdx, -80(%rbp)
	movq	-72(%rbp), %rcx
Ltmp811:
	movq	%rcx, %rdi
	movq	%rsi, -768(%rbp)        ## 8-byte Spill
	movq	%rdx, %rsi
	movq	%rax, -776(%rbp)        ## 8-byte Spill
	movq	%rcx, -784(%rbp)        ## 8-byte Spill
	callq	__ZNSt3__18ios_base4initEPv
Ltmp812:
	jmp	LBB43_1
LBB43_1:                                ## %_ZNSt3__113basic_ostreamIcNS_11char_traitsIcEEEC2EPNS_15basic_streambufIcS2_EE.exit.i
	movq	-784(%rbp), %rax        ## 8-byte Reload
	movq	$0, 136(%rax)
	movl	$-1, 144(%rax)
	movq	__ZTVNSt3__114basic_ofstreamIcNS_11char_traitsIcEEEE@GOTPCREL(%rip), %rcx
	movq	%rcx, %rdx
	addq	$24, %rdx
	movq	-768(%rbp), %rsi        ## 8-byte Reload
	movq	%rdx, (%rsi)
	addq	$64, %rcx
	movq	%rcx, 416(%rsi)
	addq	$8, %rsi
Ltmp814:
	movq	%rsi, %rdi
	callq	__ZNSt3__113basic_filebufIcNS_11char_traitsIcEEEC1Ev
Ltmp815:
	jmp	LBB43_8
LBB43_2:
Ltmp813:
	movl	%edx, %ecx
	movq	%rax, -136(%rbp)
	movl	%ecx, -140(%rbp)
	jmp	LBB43_5
LBB43_3:
Ltmp816:
	movl	%edx, %ecx
	movq	%rax, -136(%rbp)
	movl	%ecx, -140(%rbp)
Ltmp817:
	movq	__ZTTNSt3__114basic_ofstreamIcNS_11char_traitsIcEEEE@GOTPCREL(%rip), %rax
	addq	$8, %rax
	movq	-768(%rbp), %rdi        ## 8-byte Reload
	movq	%rax, %rsi
	callq	__ZNSt3__113basic_ostreamIcNS_11char_traitsIcEEED2Ev
Ltmp818:
	jmp	LBB43_4
LBB43_4:
	jmp	LBB43_5
LBB43_5:
	movq	-768(%rbp), %rax        ## 8-byte Reload
	addq	$416, %rax              ## imm = 0x1A0
Ltmp819:
	movq	%rax, %rdi
	callq	__ZNSt3__19basic_iosIcNS_11char_traitsIcEEED2Ev
Ltmp820:
	jmp	LBB43_6
LBB43_6:
	movq	-136(%rbp), %rax
	movq	%rax, -792(%rbp)        ## 8-byte Spill
	jmp	LBB43_24
LBB43_7:
Ltmp821:
	movl	%edx, %ecx
	movq	%rax, %rdi
	movl	%ecx, -796(%rbp)        ## 4-byte Spill
	callq	___clang_call_terminate
LBB43_8:                                ## %_ZNSt3__114basic_ofstreamIcNS_11char_traitsIcEEEC1Ev.exit
Ltmp822:
	leaq	L_.str12(%rip), %rsi
	leaq	-736(%rbp), %rdi
	movl	$16, %edx
	callq	__ZNSt3__114basic_ofstreamIcNS_11char_traitsIcEEE4openEPKcj
Ltmp823:
	jmp	LBB43_9
LBB43_9:
Ltmp824:
	leaq	-736(%rbp), %rdi
	movq	-760(%rbp), %rsi        ## 8-byte Reload
	callq	__ZNSt3__1lsIcNS_11char_traitsIcEENS_9allocatorIcEEEERNS_13basic_ostreamIT_T0_EES9_RKNS_12basic_stringIS6_S7_T1_EE
Ltmp825:
	movq	%rax, -808(%rbp)        ## 8-byte Spill
	jmp	LBB43_10
LBB43_10:
	leaq	-736(%rbp), %rax
	movq	%rax, -64(%rbp)
	leaq	-728(%rbp), %rdi
Ltmp826:
	movq	%rax, -816(%rbp)        ## 8-byte Spill
	callq	__ZNSt3__113basic_filebufIcNS_11char_traitsIcEEE5closeEv
Ltmp827:
	movq	%rax, -824(%rbp)        ## 8-byte Spill
	jmp	LBB43_11
LBB43_11:                               ## %.noexc
	movq	-824(%rbp), %rax        ## 8-byte Reload
	cmpq	$0, %rax
	jne	LBB43_14
## BB#12:
	movq	-816(%rbp), %rax        ## 8-byte Reload
	movq	(%rax), %rcx
	movq	-24(%rcx), %rcx
	addq	%rcx, %rax
	movq	%rax, -48(%rbp)
	movl	$4, -52(%rbp)
	movq	-48(%rbp), %rax
	movq	%rax, -32(%rbp)
	movl	$4, -36(%rbp)
	movq	-32(%rbp), %rax
	movl	32(%rax), %edx
	orl	$4, %edx
Ltmp828:
	movq	%rax, %rdi
	movl	%edx, %esi
	callq	__ZNSt3__18ios_base5clearEj
Ltmp829:
	jmp	LBB43_13
LBB43_13:                               ## %.noexc1
	jmp	LBB43_14
LBB43_14:                               ## %_ZNSt3__114basic_ofstreamIcNS_11char_traitsIcEEE5closeEv.exit
	jmp	LBB43_15
LBB43_15:
Ltmp830:
	movq	__ZNSt3__14coutE@GOTPCREL(%rip), %rdi
	leaq	L_.str13(%rip), %rsi
	callq	__ZNSt3__1lsINS_11char_traitsIcEEEERNS_13basic_ostreamIcT_EES6_PKc
Ltmp831:
	movq	%rax, -832(%rbp)        ## 8-byte Spill
	jmp	LBB43_16
LBB43_16:
	movq	-832(%rbp), %rax        ## 8-byte Reload
	movq	%rax, -16(%rbp)
	leaq	__ZNSt3__14endlIcNS_11char_traitsIcEEEERNS_13basic_ostreamIT_T0_EES7_(%rip), %rcx
	movq	%rcx, -24(%rbp)
	movq	-16(%rbp), %rdi
Ltmp832:
	callq	*%rcx
Ltmp833:
	movq	%rax, -840(%rbp)        ## 8-byte Spill
	jmp	LBB43_17
LBB43_17:                               ## %_ZNSt3__113basic_ostreamIcNS_11char_traitsIcEEElsEPFRS3_S4_E.exit
	jmp	LBB43_18
LBB43_18:
	leaq	-736(%rbp), %rdi
	callq	__ZNSt3__114basic_ofstreamIcNS_11char_traitsIcEEED1Ev
	movq	___stack_chk_guard@GOTPCREL(%rip), %rdi
	movq	(%rdi), %rdi
	cmpq	-8(%rbp), %rdi
	jne	LBB43_25
## BB#19:                               ## %SP_return
	addq	$848, %rsp              ## imm = 0x350
	popq	%rbp
	ret
LBB43_20:
Ltmp834:
	movl	%edx, %ecx
	movq	%rax, -744(%rbp)
	movl	%ecx, -748(%rbp)
Ltmp835:
	leaq	-736(%rbp), %rdi
	callq	__ZNSt3__114basic_ofstreamIcNS_11char_traitsIcEEED1Ev
Ltmp836:
	jmp	LBB43_21
LBB43_21:
	jmp	LBB43_22
LBB43_22:
	movq	-744(%rbp), %rax
	movq	%rax, -792(%rbp)        ## 8-byte Spill
	jmp	LBB43_24
LBB43_23:
Ltmp837:
	movl	%edx, %ecx
	movq	%rax, %rdi
	movl	%ecx, -844(%rbp)        ## 4-byte Spill
	callq	___clang_call_terminate
LBB43_24:                               ## %unwind_resume
	movq	-792(%rbp), %rax        ## 8-byte Reload
	movq	%rax, %rdi
	callq	__Unwind_Resume
LBB43_25:                               ## %CallStackCheckFailBlk
	callq	___stack_chk_fail
	.cfi_endproc
Leh_func_end43:
	.section	__TEXT,__gcc_except_tab
	.align	2
GCC_except_table43:
Lexception43:
	.byte	255                     ## @LPStart Encoding = omit
	.byte	155                     ## @TType Encoding = indirect pcrel sdata4
	.asciz	"\360"                  ## @TType base offset
	.byte	3                       ## Call site Encoding = udata4
	.byte	104                     ## Call site table length
Lset407 = Leh_func_begin43-Leh_func_begin43 ## >> Call Site 1 <<
	.long	Lset407
Lset408 = Ltmp811-Leh_func_begin43      ##   Call between Leh_func_begin43 and Ltmp811
	.long	Lset408
	.long	0                       ##     has no landing pad
	.byte	0                       ##   On action: cleanup
Lset409 = Ltmp811-Leh_func_begin43      ## >> Call Site 2 <<
	.long	Lset409
Lset410 = Ltmp812-Ltmp811               ##   Call between Ltmp811 and Ltmp812
	.long	Lset410
Lset411 = Ltmp813-Leh_func_begin43      ##     jumps to Ltmp813
	.long	Lset411
	.byte	0                       ##   On action: cleanup
Lset412 = Ltmp814-Leh_func_begin43      ## >> Call Site 3 <<
	.long	Lset412
Lset413 = Ltmp815-Ltmp814               ##   Call between Ltmp814 and Ltmp815
	.long	Lset413
Lset414 = Ltmp816-Leh_func_begin43      ##     jumps to Ltmp816
	.long	Lset414
	.byte	0                       ##   On action: cleanup
Lset415 = Ltmp817-Leh_func_begin43      ## >> Call Site 4 <<
	.long	Lset415
Lset416 = Ltmp820-Ltmp817               ##   Call between Ltmp817 and Ltmp820
	.long	Lset416
Lset417 = Ltmp821-Leh_func_begin43      ##     jumps to Ltmp821
	.long	Lset417
	.byte	1                       ##   On action: 1
Lset418 = Ltmp822-Leh_func_begin43      ## >> Call Site 5 <<
	.long	Lset418
Lset419 = Ltmp833-Ltmp822               ##   Call between Ltmp822 and Ltmp833
	.long	Lset419
Lset420 = Ltmp834-Leh_func_begin43      ##     jumps to Ltmp834
	.long	Lset420
	.byte	0                       ##   On action: cleanup
Lset421 = Ltmp833-Leh_func_begin43      ## >> Call Site 6 <<
	.long	Lset421
Lset422 = Ltmp835-Ltmp833               ##   Call between Ltmp833 and Ltmp835
	.long	Lset422
	.long	0                       ##     has no landing pad
	.byte	0                       ##   On action: cleanup
Lset423 = Ltmp835-Leh_func_begin43      ## >> Call Site 7 <<
	.long	Lset423
Lset424 = Ltmp836-Ltmp835               ##   Call between Ltmp835 and Ltmp836
	.long	Lset424
Lset425 = Ltmp837-Leh_func_begin43      ##     jumps to Ltmp837
	.long	Lset425
	.byte	1                       ##   On action: 1
Lset426 = Ltmp836-Leh_func_begin43      ## >> Call Site 8 <<
	.long	Lset426
Lset427 = Leh_func_end43-Ltmp836        ##   Call between Ltmp836 and Leh_func_end43
	.long	Lset427
	.long	0                       ##     has no landing pad
	.byte	0                       ##   On action: cleanup
	.byte	1                       ## >> Action Record 1 <<
                                        ##   Catch TypeInfo 1
	.byte	0                       ##   No further actions
                                        ## >> Catch TypeInfos <<
	.long	0                       ## TypeInfo 1
	.align	2

	.section	__TEXT,__textcoal_nt,coalesced,pure_instructions
	.globl	__ZNSt3__114basic_ofstreamIcNS_11char_traitsIcEEE4openEPKcj
	.weak_def_can_be_hidden	__ZNSt3__114basic_ofstreamIcNS_11char_traitsIcEEE4openEPKcj
	.align	4, 0x90
__ZNSt3__114basic_ofstreamIcNS_11char_traitsIcEEE4openEPKcj: ## @_ZNSt3__114basic_ofstreamIcNS_11char_traitsIcEEE4openEPKcj
	.cfi_startproc
## BB#0:
	pushq	%rbp
Ltmp845:
	.cfi_def_cfa_offset 16
Ltmp846:
	.cfi_offset %rbp, -16
	movq	%rsp, %rbp
Ltmp847:
	.cfi_def_cfa_register %rbp
	subq	$80, %rsp
	movq	%rdi, -56(%rbp)
	movq	%rsi, -64(%rbp)
	movl	%edx, -68(%rbp)
	movq	-56(%rbp), %rsi
	movq	%rsi, %rdi
	addq	$8, %rdi
	movq	-64(%rbp), %rax
	movl	-68(%rbp), %edx
	orl	$16, %edx
	movq	%rsi, -80(%rbp)         ## 8-byte Spill
	movq	%rax, %rsi
	callq	__ZNSt3__113basic_filebufIcNS_11char_traitsIcEEE4openEPKcj
	cmpq	$0, %rax
	je	LBB44_2
## BB#1:
	movq	-80(%rbp), %rax         ## 8-byte Reload
	movq	(%rax), %rcx
	movq	-24(%rcx), %rcx
	addq	%rcx, %rax
	movq	%rax, -40(%rbp)
	movl	$0, -44(%rbp)
	movq	-40(%rbp), %rax
	movl	-44(%rbp), %esi
	movq	%rax, %rdi
	callq	__ZNSt3__18ios_base5clearEj
	jmp	LBB44_3
LBB44_2:
	movq	-80(%rbp), %rax         ## 8-byte Reload
	movq	(%rax), %rcx
	movq	-24(%rcx), %rcx
	addq	%rcx, %rax
	movq	%rax, -24(%rbp)
	movl	$4, -28(%rbp)
	movq	-24(%rbp), %rax
	movl	-28(%rbp), %edx
	movq	%rax, -8(%rbp)
	movl	%edx, -12(%rbp)
	movq	-8(%rbp), %rax
	movl	32(%rax), %edx
	orl	-12(%rbp), %edx
	movq	%rax, %rdi
	movl	%edx, %esi
	callq	__ZNSt3__18ios_base5clearEj
LBB44_3:
	addq	$80, %rsp
	popq	%rbp
	ret
	.cfi_endproc

	.globl	__ZNSt3__114basic_ofstreamIcNS_11char_traitsIcEEED1Ev
	.weak_def_can_be_hidden	__ZNSt3__114basic_ofstreamIcNS_11char_traitsIcEEED1Ev
	.align	4, 0x90
__ZNSt3__114basic_ofstreamIcNS_11char_traitsIcEEED1Ev: ## @_ZNSt3__114basic_ofstreamIcNS_11char_traitsIcEEED1Ev
	.cfi_startproc
	.cfi_personality 155, ___gxx_personality_v0
Leh_func_begin45:
	.cfi_lsda 16, Lexception45
## BB#0:
	pushq	%rbp
Ltmp856:
	.cfi_def_cfa_offset 16
Ltmp857:
	.cfi_offset %rbp, -16
	movq	%rsp, %rbp
Ltmp858:
	.cfi_def_cfa_register %rbp
	subq	$48, %rsp
	movq	%rdi, -8(%rbp)
	movq	%rdi, %rax
Ltmp848:
	movq	__ZTTNSt3__114basic_ofstreamIcNS_11char_traitsIcEEEE@GOTPCREL(%rip), %rsi
	movq	%rax, -32(%rbp)         ## 8-byte Spill
	callq	__ZNSt3__114basic_ofstreamIcNS_11char_traitsIcEEED2Ev
Ltmp849:
	jmp	LBB45_1
LBB45_1:
	movq	-32(%rbp), %rax         ## 8-byte Reload
	addq	$416, %rax              ## imm = 0x1A0
	movq	%rax, %rdi
	callq	__ZNSt3__19basic_iosIcNS_11char_traitsIcEEED2Ev
	addq	$48, %rsp
	popq	%rbp
	ret
LBB45_2:
Ltmp850:
	movl	%edx, %ecx
	movq	%rax, -16(%rbp)
	movl	%ecx, -20(%rbp)
	movq	-32(%rbp), %rax         ## 8-byte Reload
	addq	$416, %rax              ## imm = 0x1A0
Ltmp851:
	movq	%rax, %rdi
	callq	__ZNSt3__19basic_iosIcNS_11char_traitsIcEEED2Ev
Ltmp852:
	jmp	LBB45_3
LBB45_3:
	jmp	LBB45_4
LBB45_4:
	movq	-16(%rbp), %rdi
	callq	__Unwind_Resume
LBB45_5:
Ltmp853:
	movl	%edx, %ecx
	movq	%rax, %rdi
	movl	%ecx, -36(%rbp)         ## 4-byte Spill
	callq	___clang_call_terminate
	.cfi_endproc
Leh_func_end45:
	.section	__TEXT,__gcc_except_tab
	.align	2
GCC_except_table45:
Lexception45:
	.byte	255                     ## @LPStart Encoding = omit
	.byte	155                     ## @TType Encoding = indirect pcrel sdata4
	.asciz	"\274"                  ## @TType base offset
	.byte	3                       ## Call site Encoding = udata4
	.byte	52                      ## Call site table length
Lset428 = Ltmp848-Leh_func_begin45      ## >> Call Site 1 <<
	.long	Lset428
Lset429 = Ltmp849-Ltmp848               ##   Call between Ltmp848 and Ltmp849
	.long	Lset429
Lset430 = Ltmp850-Leh_func_begin45      ##     jumps to Ltmp850
	.long	Lset430
	.byte	0                       ##   On action: cleanup
Lset431 = Ltmp849-Leh_func_begin45      ## >> Call Site 2 <<
	.long	Lset431
Lset432 = Ltmp851-Ltmp849               ##   Call between Ltmp849 and Ltmp851
	.long	Lset432
	.long	0                       ##     has no landing pad
	.byte	0                       ##   On action: cleanup
Lset433 = Ltmp851-Leh_func_begin45      ## >> Call Site 3 <<
	.long	Lset433
Lset434 = Ltmp852-Ltmp851               ##   Call between Ltmp851 and Ltmp852
	.long	Lset434
Lset435 = Ltmp853-Leh_func_begin45      ##     jumps to Ltmp853
	.long	Lset435
	.byte	1                       ##   On action: 1
Lset436 = Ltmp852-Leh_func_begin45      ## >> Call Site 4 <<
	.long	Lset436
Lset437 = Leh_func_end45-Ltmp852        ##   Call between Ltmp852 and Leh_func_end45
	.long	Lset437
	.long	0                       ##     has no landing pad
	.byte	0                       ##   On action: cleanup
	.byte	1                       ## >> Action Record 1 <<
                                        ##   Catch TypeInfo 1
	.byte	0                       ##   No further actions
                                        ## >> Catch TypeInfos <<
	.long	0                       ## TypeInfo 1
	.align	2

	.section	__TEXT,__text,regular,pure_instructions
	.globl	__ZN5Store12readFromFileEv
	.align	4, 0x90
__ZN5Store12readFromFileEv:             ## @_ZN5Store12readFromFileEv
	.cfi_startproc
	.cfi_personality 155, ___gxx_personality_v0
Leh_func_begin46:
	.cfi_lsda 16, Lexception46
## BB#0:
	pushq	%rbp
Ltmp908:
	.cfi_def_cfa_offset 16
Ltmp909:
	.cfi_offset %rbp, -16
	movq	%rsp, %rbp
Ltmp910:
	.cfi_def_cfa_register %rbp
	subq	$1152, %rsp             ## imm = 0x480
	movq	%rdi, %rax
	movq	___stack_chk_guard@GOTPCREL(%rip), %rcx
	movq	(%rcx), %rcx
	movq	%rcx, -8(%rbp)
	movq	%rsi, -368(%rbp)
	movb	$0, -369(%rbp)
	movq	%rdi, -360(%rbp)
	movq	-360(%rbp), %rcx
	movq	%rcx, -352(%rbp)
	movq	-352(%rbp), %rcx
	movq	%rcx, -344(%rbp)
	movq	-344(%rbp), %rsi
	movq	%rsi, -336(%rbp)
	movq	-336(%rbp), %rsi
	movq	%rsi, -328(%rbp)
	movq	-328(%rbp), %rsi
	movq	%rsi, -320(%rbp)
	movq	%rcx, -296(%rbp)
	movq	-296(%rbp), %rcx
	movq	%rcx, -288(%rbp)
	movq	-288(%rbp), %rcx
	movq	%rcx, -280(%rbp)
	movq	-280(%rbp), %rcx
	movq	%rcx, -304(%rbp)
	movl	$0, -308(%rbp)
	movq	%rax, -976(%rbp)        ## 8-byte Spill
	movq	%rdi, -984(%rbp)        ## 8-byte Spill
LBB46_1:                                ## =>This Inner Loop Header: Depth=1
	cmpl	$3, -308(%rbp)
	jae	LBB46_3
## BB#2:                                ##   in Loop: Header=BB46_1 Depth=1
	movl	-308(%rbp), %eax
	movl	%eax, %ecx
	movq	-304(%rbp), %rdx
	movq	$0, (%rdx,%rcx,8)
	movl	-308(%rbp), %eax
	addl	$1, %eax
	movl	%eax, -308(%rbp)
	jmp	LBB46_1
LBB46_3:                                ## %_ZNSt3__112basic_stringIcNS_11char_traitsIcEENS_9allocatorIcEEEC1Ev.exit
	leaq	-952(%rbp), %rax
	movq	%rax, -240(%rbp)
	leaq	L_.str12(%rip), %rax
	movq	%rax, -248(%rbp)
	movl	$8, -252(%rbp)
	movq	-240(%rbp), %rax
	movq	%rax, %rcx
	addq	$424, %rcx              ## imm = 0x1A8
	movq	%rcx, -232(%rbp)
	movq	%rcx, -224(%rbp)
	movq	__ZTVNSt3__18ios_baseE@GOTPCREL(%rip), %rcx
	addq	$16, %rcx
	movq	%rcx, 424(%rax)
	movq	__ZTVNSt3__19basic_iosIcNS_11char_traitsIcEEEE@GOTPCREL(%rip), %rcx
	addq	$16, %rcx
	movq	%rcx, 424(%rax)
	movq	__ZTVNSt3__114basic_ifstreamIcNS_11char_traitsIcEEEE@GOTPCREL(%rip), %rcx
	movq	%rcx, %rdx
	addq	$24, %rdx
	movq	%rdx, (%rax)
	addq	$64, %rcx
	movq	%rcx, 424(%rax)
	movq	%rax, %rcx
	addq	$16, %rcx
	movq	%rax, -200(%rbp)
	movq	__ZTTNSt3__114basic_ifstreamIcNS_11char_traitsIcEEEE@GOTPCREL(%rip), %rdx
	addq	$8, %rdx
	movq	%rdx, -208(%rbp)
	movq	%rcx, -216(%rbp)
	movq	-200(%rbp), %rcx
	movq	-208(%rbp), %rdx
	movq	(%rdx), %rsi
	movq	%rsi, (%rcx)
	movq	8(%rdx), %rdx
	movq	-24(%rsi), %rsi
	movq	%rdx, (%rcx,%rsi)
	movq	$0, 8(%rcx)
	movq	(%rcx), %rdx
	movq	-24(%rdx), %rdx
	addq	%rdx, %rcx
	movq	-216(%rbp), %rdx
	movq	%rcx, -184(%rbp)
	movq	%rdx, -192(%rbp)
	movq	-184(%rbp), %rcx
Ltmp859:
	movq	%rcx, %rdi
	movq	%rdx, %rsi
	movq	%rax, -992(%rbp)        ## 8-byte Spill
	movq	%rcx, -1000(%rbp)       ## 8-byte Spill
	callq	__ZNSt3__18ios_base4initEPv
Ltmp860:
	jmp	LBB46_4
LBB46_4:                                ## %_ZNSt3__113basic_istreamIcNS_11char_traitsIcEEEC2EPNS_15basic_streambufIcS2_EE.exit.i
	movq	-1000(%rbp), %rax       ## 8-byte Reload
	movq	$0, 136(%rax)
	movl	$-1, 144(%rax)
	movq	__ZTVNSt3__114basic_ifstreamIcNS_11char_traitsIcEEEE@GOTPCREL(%rip), %rcx
	movq	%rcx, %rdx
	addq	$24, %rdx
	movq	-992(%rbp), %rsi        ## 8-byte Reload
	movq	%rdx, (%rsi)
	addq	$64, %rcx
	movq	%rcx, 424(%rsi)
	addq	$16, %rsi
Ltmp862:
	movq	%rsi, %rdi
	movq	%rsi, -1008(%rbp)       ## 8-byte Spill
	callq	__ZNSt3__113basic_filebufIcNS_11char_traitsIcEEEC1Ev
Ltmp863:
	jmp	LBB46_5
LBB46_5:
	movq	-992(%rbp), %rax        ## 8-byte Reload
	addq	$16, %rax
	movq	-248(%rbp), %rsi
	movl	-252(%rbp), %ecx
	orl	$8, %ecx
Ltmp865:
	movq	%rax, %rdi
	movl	%ecx, %edx
	callq	__ZNSt3__113basic_filebufIcNS_11char_traitsIcEEE4openEPKcj
Ltmp866:
	movq	%rax, -1016(%rbp)       ## 8-byte Spill
	jmp	LBB46_6
LBB46_6:
	movq	-1016(%rbp), %rax       ## 8-byte Reload
	cmpq	$0, %rax
	jne	LBB46_18
## BB#7:
	movq	-992(%rbp), %rax        ## 8-byte Reload
	movq	(%rax), %rcx
	movq	-24(%rcx), %rcx
	addq	%rcx, %rax
	movq	%rax, -168(%rbp)
	movl	$4, -172(%rbp)
	movq	-168(%rbp), %rax
	movq	%rax, -152(%rbp)
	movl	$4, -156(%rbp)
	movq	-152(%rbp), %rax
	movl	32(%rax), %edx
	orl	$4, %edx
Ltmp867:
	movq	%rax, %rdi
	movl	%edx, %esi
	callq	__ZNSt3__18ios_base5clearEj
Ltmp868:
	jmp	LBB46_8
LBB46_8:                                ## %_ZNSt3__19basic_iosIcNS_11char_traitsIcEEE8setstateEj.exit.i
	jmp	LBB46_18
LBB46_9:
Ltmp861:
	movl	%edx, %ecx
	movq	%rax, -264(%rbp)
	movl	%ecx, -268(%rbp)
	jmp	LBB46_15
LBB46_10:
Ltmp864:
	movl	%edx, %ecx
	movq	%rax, -264(%rbp)
	movl	%ecx, -268(%rbp)
	jmp	LBB46_13
LBB46_11:
Ltmp869:
	movl	%edx, %ecx
	movq	%rax, -264(%rbp)
	movl	%ecx, -268(%rbp)
Ltmp870:
	movq	-1008(%rbp), %rdi       ## 8-byte Reload
	callq	__ZNSt3__113basic_filebufIcNS_11char_traitsIcEEED1Ev
Ltmp871:
	jmp	LBB46_12
LBB46_12:
	jmp	LBB46_13
LBB46_13:
Ltmp872:
	movq	__ZTTNSt3__114basic_ifstreamIcNS_11char_traitsIcEEEE@GOTPCREL(%rip), %rax
	addq	$8, %rax
	movq	-992(%rbp), %rdi        ## 8-byte Reload
	movq	%rax, %rsi
	callq	__ZNSt3__113basic_istreamIcNS_11char_traitsIcEEED2Ev
Ltmp873:
	jmp	LBB46_14
LBB46_14:
	jmp	LBB46_15
LBB46_15:
	movq	-992(%rbp), %rax        ## 8-byte Reload
	addq	$424, %rax              ## imm = 0x1A8
Ltmp874:
	movq	%rax, %rdi
	callq	__ZNSt3__19basic_iosIcNS_11char_traitsIcEEED2Ev
Ltmp875:
	jmp	LBB46_16
LBB46_16:
	movq	-264(%rbp), %rax
	movl	-268(%rbp), %ecx
	movq	%rax, -1024(%rbp)       ## 8-byte Spill
	movl	%ecx, -1028(%rbp)       ## 4-byte Spill
	jmp	LBB46_37
LBB46_17:
Ltmp876:
	movl	%edx, %ecx
	movq	%rax, %rdi
	movl	%ecx, -1032(%rbp)       ## 4-byte Spill
	callq	___clang_call_terminate
LBB46_18:                               ## %_ZNSt3__114basic_ifstreamIcNS_11char_traitsIcEEEC1EPKcj.exit
	jmp	LBB46_19
LBB46_19:
	leaq	-952(%rbp), %rax
	movq	%rax, -144(%rbp)
	movq	-144(%rbp), %rax
	addq	$16, %rax
	movq	%rax, -136(%rbp)
	movq	-136(%rbp), %rax
	cmpq	$0, 120(%rax)
	setne	%cl
	movb	%cl, -1033(%rbp)        ## 1-byte Spill
## BB#20:
	movb	-1033(%rbp), %al        ## 1-byte Reload
	testb	$1, %al
	jne	LBB46_21
	jmp	LBB46_40
LBB46_21:
	leaq	-952(%rbp), %rax
	movq	%rax, -120(%rbp)
	movq	-984(%rbp), %rax        ## 8-byte Reload
	movq	%rax, -128(%rbp)
	movq	-120(%rbp), %rcx
	movq	(%rcx), %rdx
	movq	-24(%rdx), %rdx
	movq	%rcx, %rsi
	addq	%rdx, %rsi
	movq	%rsi, -80(%rbp)
	movb	$10, -81(%rbp)
	movq	-80(%rbp), %rsi
Ltmp879:
	leaq	-96(%rbp), %rdi
	movq	%rax, -1048(%rbp)       ## 8-byte Spill
	movq	%rcx, -1056(%rbp)       ## 8-byte Spill
	callq	__ZNKSt3__18ios_base6getlocEv
Ltmp880:
	jmp	LBB46_22
LBB46_22:                               ## %.noexc
	leaq	-96(%rbp), %rax
	movq	%rax, -72(%rbp)
Ltmp881:
	movq	__ZNSt3__15ctypeIcE2idE@GOTPCREL(%rip), %rsi
	movq	%rax, %rdi
	callq	__ZNKSt3__16locale9use_facetERNS0_2idE
Ltmp882:
	movq	%rax, -1064(%rbp)       ## 8-byte Spill
	jmp	LBB46_23
LBB46_23:                               ## %_ZNSt3__19use_facetINS_5ctypeIcEEEERKT_RKNS_6localeE.exit.i.i
	movb	-81(%rbp), %al
	movq	-1064(%rbp), %rcx       ## 8-byte Reload
	movq	%rcx, -56(%rbp)
	movb	%al, -57(%rbp)
	movq	-56(%rbp), %rdx
	movq	(%rdx), %rsi
	movq	56(%rsi), %rsi
	movsbl	-57(%rbp), %edi
Ltmp883:
	movl	%edi, -1068(%rbp)       ## 4-byte Spill
	movq	%rdx, %rdi
	movl	-1068(%rbp), %r8d       ## 4-byte Reload
	movq	%rsi, -1080(%rbp)       ## 8-byte Spill
	movl	%r8d, %esi
	movq	-1080(%rbp), %rdx       ## 8-byte Reload
	callq	*%rdx
Ltmp884:
	movb	%al, -1081(%rbp)        ## 1-byte Spill
	jmp	LBB46_27
LBB46_24:
Ltmp885:
	movl	%edx, %ecx
	movq	%rax, -104(%rbp)
	movl	%ecx, -108(%rbp)
Ltmp886:
	leaq	-96(%rbp), %rdi
	callq	__ZNSt3__16localeD1Ev
Ltmp887:
	jmp	LBB46_25
LBB46_25:
	movq	-104(%rbp), %rax
	movl	-108(%rbp), %ecx
	movq	%rax, -1096(%rbp)       ## 8-byte Spill
	movl	%ecx, -1100(%rbp)       ## 4-byte Spill
	jmp	LBB46_39
LBB46_26:
Ltmp888:
	movl	%edx, %ecx
	movq	%rax, %rdi
	movl	%ecx, -1104(%rbp)       ## 4-byte Spill
	callq	___clang_call_terminate
LBB46_27:                               ## %_ZNKSt3__19basic_iosIcNS_11char_traitsIcEEE5widenEc.exit.i
Ltmp889:
	leaq	-96(%rbp), %rdi
	callq	__ZNSt3__16localeD1Ev
Ltmp890:
	jmp	LBB46_28
LBB46_28:                               ## %.noexc3
Ltmp891:
	movb	-1081(%rbp), %al        ## 1-byte Reload
	movsbl	%al, %edx
	movq	-1056(%rbp), %rdi       ## 8-byte Reload
	movq	-1048(%rbp), %rsi       ## 8-byte Reload
	callq	__ZNSt3__17getlineIcNS_11char_traitsIcEENS_9allocatorIcEEEERNS_13basic_istreamIT_T0_EES9_RNS_12basic_stringIS6_S7_T1_EES6_
Ltmp892:
	movq	%rax, -1112(%rbp)       ## 8-byte Spill
	jmp	LBB46_29
LBB46_29:                               ## %_ZNSt3__17getlineIcNS_11char_traitsIcEENS_9allocatorIcEEEERNS_13basic_istreamIT_T0_EES9_RNS_12basic_stringIS6_S7_T1_EE.exit
	jmp	LBB46_30
LBB46_30:
	leaq	-952(%rbp), %rax
	movq	%rax, -48(%rbp)
	leaq	-936(%rbp), %rdi
Ltmp893:
	movq	%rax, -1120(%rbp)       ## 8-byte Spill
	callq	__ZNSt3__113basic_filebufIcNS_11char_traitsIcEEE5closeEv
Ltmp894:
	movq	%rax, -1128(%rbp)       ## 8-byte Spill
	jmp	LBB46_31
LBB46_31:                               ## %.noexc5
	movq	-1128(%rbp), %rax       ## 8-byte Reload
	cmpq	$0, %rax
	jne	LBB46_34
## BB#32:
	movq	-1120(%rbp), %rax       ## 8-byte Reload
	movq	(%rax), %rcx
	movq	-24(%rcx), %rcx
	addq	%rcx, %rax
	movq	%rax, -32(%rbp)
	movl	$4, -36(%rbp)
	movq	-32(%rbp), %rax
	movq	%rax, -16(%rbp)
	movl	$4, -20(%rbp)
	movq	-16(%rbp), %rax
	movl	32(%rax), %edx
	orl	$4, %edx
Ltmp895:
	movq	%rax, %rdi
	movl	%edx, %esi
	callq	__ZNSt3__18ios_base5clearEj
Ltmp896:
	jmp	LBB46_33
LBB46_33:                               ## %.noexc6
	jmp	LBB46_34
LBB46_34:                               ## %_ZNSt3__114basic_ifstreamIcNS_11char_traitsIcEEE5closeEv.exit
	jmp	LBB46_35
LBB46_35:
	jmp	LBB46_42
LBB46_36:
Ltmp902:
	movl	%edx, %ecx
	movq	%rax, -1024(%rbp)       ## 8-byte Spill
	movl	%ecx, -1028(%rbp)       ## 4-byte Spill
LBB46_37:                               ## %.body
	movl	-1028(%rbp), %eax       ## 4-byte Reload
	movq	-1024(%rbp), %rcx       ## 8-byte Reload
	movq	%rcx, -960(%rbp)
	movl	%eax, -964(%rbp)
	jmp	LBB46_48
LBB46_38:
Ltmp897:
	movl	%edx, %ecx
	movq	%rax, -1096(%rbp)       ## 8-byte Spill
	movl	%ecx, -1100(%rbp)       ## 4-byte Spill
LBB46_39:                               ## %.body1
	movl	-1100(%rbp), %eax       ## 4-byte Reload
	movq	-1096(%rbp), %rcx       ## 8-byte Reload
	movq	%rcx, -960(%rbp)
	movl	%eax, -964(%rbp)
Ltmp898:
	leaq	-952(%rbp), %rdi
	callq	__ZNSt3__114basic_ifstreamIcNS_11char_traitsIcEEED1Ev
Ltmp899:
	jmp	LBB46_44
LBB46_40:
Ltmp877:
	movq	__ZNSt3__14coutE@GOTPCREL(%rip), %rdi
	leaq	L_.str14(%rip), %rsi
	callq	__ZNSt3__1lsINS_11char_traitsIcEEEERNS_13basic_ostreamIcT_EES6_PKc
Ltmp878:
